
target/thumbv6m-none-eabi/debug/cortex-m-rt-bug-mwe:     file format elf32-littlearm


Disassembly of section .text:

000000c0 <_ZN49_$LT$usize$u20$as$u20$core..iter..range..Step$GT$9add_usize17h50f8124b79da71f5E>:
  c0:	b580      	push	{r7, lr}
  c2:	b088      	sub	sp, #32
  c4:	460a      	mov	r2, r1
  c6:	4603      	mov	r3, r0
  c8:	9004      	str	r0, [sp, #16]
  ca:	9105      	str	r1, [sp, #20]
  cc:	9805      	ldr	r0, [sp, #20]
  ce:	9203      	str	r2, [sp, #12]
  d0:	9302      	str	r3, [sp, #8]
  d2:	f000 f915 	bl	300 <_ZN53_$LT$T$u20$as$u20$core..convert..TryFrom$LT$U$GT$$GT$8try_from17h198c849e2a3194f1E>
  d6:	9006      	str	r0, [sp, #24]
  d8:	e7ff      	b.n	da <_ZN49_$LT$usize$u20$as$u20$core..iter..range..Step$GT$9add_usize17h50f8124b79da71f5E+0x1a>
  da:	9806      	ldr	r0, [sp, #24]
  dc:	9007      	str	r0, [sp, #28]
  de:	9804      	ldr	r0, [sp, #16]
  e0:	6800      	ldr	r0, [r0, #0]
  e2:	9907      	ldr	r1, [sp, #28]
  e4:	f000 fa46 	bl	574 <_ZN4core3num23_$LT$impl$u20$usize$GT$11checked_add17hd01672ece579c4aaE>
  e8:	9001      	str	r0, [sp, #4]
  ea:	9100      	str	r1, [sp, #0]
  ec:	e7ff      	b.n	ee <_ZN49_$LT$usize$u20$as$u20$core..iter..range..Step$GT$9add_usize17h50f8124b79da71f5E+0x2e>
  ee:	9801      	ldr	r0, [sp, #4]
  f0:	9900      	ldr	r1, [sp, #0]
  f2:	b008      	add	sp, #32
  f4:	bd80      	pop	{r7, pc}

000000f6 <_ZN4core4iter5range101_$LT$impl$u20$core..iter..traits..iterator..Iterator$u20$for$u20$core..ops..range..Range$LT$A$GT$$GT$4next17h3950065e276e4388E>:
  f6:	b580      	push	{r7, lr}
  f8:	b08a      	sub	sp, #40	; 0x28
  fa:	4601      	mov	r1, r0
  fc:	9003      	str	r0, [sp, #12]
  fe:	a809      	add	r0, sp, #36	; 0x24
 100:	2200      	movs	r2, #0
 102:	7002      	strb	r2, [r0, #0]
 104:	9803      	ldr	r0, [sp, #12]
 106:	1d02      	adds	r2, r0, #4
 108:	9102      	str	r1, [sp, #8]
 10a:	4611      	mov	r1, r2
 10c:	f000 f84c 	bl	1a8 <_ZN4core3cmp5impls57_$LT$impl$u20$core..cmp..PartialOrd$u20$for$u20$usize$GT$2lt17he2f5da511bc50259E>
 110:	9001      	str	r0, [sp, #4]
 112:	e7ff      	b.n	114 <_ZN4core4iter5range101_$LT$impl$u20$core..iter..traits..iterator..Iterator$u20$for$u20$core..ops..range..Range$LT$A$GT$$GT$4next17h3950065e276e4388E+0x1e>
 114:	9801      	ldr	r0, [sp, #4]
 116:	07c1      	lsls	r1, r0, #31
 118:	2900      	cmp	r1, #0
 11a:	d020      	beq.n	15e <_ZN4core4iter5range101_$LT$impl$u20$core..iter..traits..iterator..Iterator$u20$for$u20$core..ops..range..Range$LT$A$GT$$GT$4next17h3950065e276e4388E+0x68>
 11c:	e7ff      	b.n	11e <_ZN4core4iter5range101_$LT$impl$u20$core..iter..traits..iterator..Iterator$u20$for$u20$core..ops..range..Range$LT$A$GT$$GT$4next17h3950065e276e4388E+0x28>
 11e:	9803      	ldr	r0, [sp, #12]
 120:	a909      	add	r1, sp, #36	; 0x24
 122:	2201      	movs	r2, #1
 124:	700a      	strb	r2, [r1, #0]
 126:	4611      	mov	r1, r2
 128:	f7ff ffca 	bl	c0 <_ZN49_$LT$usize$u20$as$u20$core..iter..range..Step$GT$9add_usize17h50f8124b79da71f5E>
 12c:	9107      	str	r1, [sp, #28]
 12e:	9006      	str	r0, [sp, #24]
 130:	e7ff      	b.n	132 <_ZN4core4iter5range101_$LT$impl$u20$core..iter..traits..iterator..Iterator$u20$for$u20$core..ops..range..Range$LT$A$GT$$GT$4next17h3950065e276e4388E+0x3c>
 132:	9806      	ldr	r0, [sp, #24]
 134:	2801      	cmp	r0, #1
 136:	d10f      	bne.n	158 <_ZN4core4iter5range101_$LT$impl$u20$core..iter..traits..iterator..Iterator$u20$for$u20$core..ops..range..Range$LT$A$GT$$GT$4next17h3950065e276e4388E+0x62>
 138:	e7ff      	b.n	13a <_ZN4core4iter5range101_$LT$impl$u20$core..iter..traits..iterator..Iterator$u20$for$u20$core..ops..range..Range$LT$A$GT$$GT$4next17h3950065e276e4388E+0x44>
 13a:	a809      	add	r0, sp, #36	; 0x24
 13c:	2100      	movs	r1, #0
 13e:	7001      	strb	r1, [r0, #0]
 140:	9807      	ldr	r0, [sp, #28]
 142:	9008      	str	r0, [sp, #32]
 144:	9903      	ldr	r1, [sp, #12]
 146:	a808      	add	r0, sp, #32
 148:	f000 fa60 	bl	60c <_ZN4core3mem4swap17hf5e65ce2ff753d30E>
 14c:	e7ff      	b.n	14e <_ZN4core4iter5range101_$LT$impl$u20$core..iter..traits..iterator..Iterator$u20$for$u20$core..ops..range..Range$LT$A$GT$$GT$4next17h3950065e276e4388E+0x58>
 14e:	9808      	ldr	r0, [sp, #32]
 150:	9005      	str	r0, [sp, #20]
 152:	2001      	movs	r0, #1
 154:	9004      	str	r0, [sp, #16]
 156:	e018      	b.n	18a <_ZN4core4iter5range101_$LT$impl$u20$core..iter..traits..iterator..Iterator$u20$for$u20$core..ops..range..Range$LT$A$GT$$GT$4next17h3950065e276e4388E+0x94>
 158:	2000      	movs	r0, #0
 15a:	9004      	str	r0, [sp, #16]
 15c:	e015      	b.n	18a <_ZN4core4iter5range101_$LT$impl$u20$core..iter..traits..iterator..Iterator$u20$for$u20$core..ops..range..Range$LT$A$GT$$GT$4next17h3950065e276e4388E+0x94>
 15e:	2000      	movs	r0, #0
 160:	9004      	str	r0, [sp, #16]
 162:	e7ff      	b.n	164 <_ZN4core4iter5range101_$LT$impl$u20$core..iter..traits..iterator..Iterator$u20$for$u20$core..ops..range..Range$LT$A$GT$$GT$4next17h3950065e276e4388E+0x6e>
 164:	9804      	ldr	r0, [sp, #16]
 166:	9905      	ldr	r1, [sp, #20]
 168:	b00a      	add	sp, #40	; 0x28
 16a:	bd80      	pop	{r7, pc}
 16c:	a809      	add	r0, sp, #36	; 0x24
 16e:	2100      	movs	r1, #0
 170:	7001      	strb	r1, [r0, #0]
 172:	e7f7      	b.n	164 <_ZN4core4iter5range101_$LT$impl$u20$core..iter..traits..iterator..Iterator$u20$for$u20$core..ops..range..Range$LT$A$GT$$GT$4next17h3950065e276e4388E+0x6e>
 174:	a809      	add	r0, sp, #36	; 0x24
 176:	7800      	ldrb	r0, [r0, #0]
 178:	07c0      	lsls	r0, r0, #31
 17a:	2800      	cmp	r0, #0
 17c:	d0f6      	beq.n	16c <_ZN4core4iter5range101_$LT$impl$u20$core..iter..traits..iterator..Iterator$u20$for$u20$core..ops..range..Range$LT$A$GT$$GT$4next17h3950065e276e4388E+0x76>
 17e:	e7ff      	b.n	180 <_ZN4core4iter5range101_$LT$impl$u20$core..iter..traits..iterator..Iterator$u20$for$u20$core..ops..range..Range$LT$A$GT$$GT$4next17h3950065e276e4388E+0x8a>
 180:	a809      	add	r0, sp, #36	; 0x24
 182:	2100      	movs	r1, #0
 184:	7001      	strb	r1, [r0, #0]
 186:	e7f1      	b.n	16c <_ZN4core4iter5range101_$LT$impl$u20$core..iter..traits..iterator..Iterator$u20$for$u20$core..ops..range..Range$LT$A$GT$$GT$4next17h3950065e276e4388E+0x76>
 188:	e7f0      	b.n	16c <_ZN4core4iter5range101_$LT$impl$u20$core..iter..traits..iterator..Iterator$u20$for$u20$core..ops..range..Range$LT$A$GT$$GT$4next17h3950065e276e4388E+0x76>
 18a:	9806      	ldr	r0, [sp, #24]
 18c:	2801      	cmp	r0, #1
 18e:	d0f1      	beq.n	174 <_ZN4core4iter5range101_$LT$impl$u20$core..iter..traits..iterator..Iterator$u20$for$u20$core..ops..range..Range$LT$A$GT$$GT$4next17h3950065e276e4388E+0x7e>
 190:	e7fa      	b.n	188 <_ZN4core4iter5range101_$LT$impl$u20$core..iter..traits..iterator..Iterator$u20$for$u20$core..ops..range..Range$LT$A$GT$$GT$4next17h3950065e276e4388E+0x92>

00000192 <_ZN63_$LT$I$u20$as$u20$core..iter..traits..collect..IntoIterator$GT$9into_iter17hd8917e2df7a43f20E>:
 192:	b084      	sub	sp, #16
 194:	460a      	mov	r2, r1
 196:	4603      	mov	r3, r0
 198:	9002      	str	r0, [sp, #8]
 19a:	9103      	str	r1, [sp, #12]
 19c:	9802      	ldr	r0, [sp, #8]
 19e:	9903      	ldr	r1, [sp, #12]
 1a0:	9201      	str	r2, [sp, #4]
 1a2:	9300      	str	r3, [sp, #0]
 1a4:	b004      	add	sp, #16
 1a6:	4770      	bx	lr

000001a8 <_ZN4core3cmp5impls57_$LT$impl$u20$core..cmp..PartialOrd$u20$for$u20$usize$GT$2lt17he2f5da511bc50259E>:
 1a8:	b5b0      	push	{r4, r5, r7, lr}
 1aa:	b086      	sub	sp, #24
 1ac:	460a      	mov	r2, r1
 1ae:	4603      	mov	r3, r0
 1b0:	9004      	str	r0, [sp, #16]
 1b2:	9105      	str	r1, [sp, #20]
 1b4:	9804      	ldr	r0, [sp, #16]
 1b6:	6800      	ldr	r0, [r0, #0]
 1b8:	9905      	ldr	r1, [sp, #20]
 1ba:	6809      	ldr	r1, [r1, #0]
 1bc:	2401      	movs	r4, #1
 1be:	2500      	movs	r5, #0
 1c0:	4288      	cmp	r0, r1
 1c2:	9203      	str	r2, [sp, #12]
 1c4:	9302      	str	r3, [sp, #8]
 1c6:	9501      	str	r5, [sp, #4]
 1c8:	9400      	str	r4, [sp, #0]
 1ca:	d301      	bcc.n	1d0 <_ZN4core3cmp5impls57_$LT$impl$u20$core..cmp..PartialOrd$u20$for$u20$usize$GT$2lt17he2f5da511bc50259E+0x28>
 1cc:	9801      	ldr	r0, [sp, #4]
 1ce:	9000      	str	r0, [sp, #0]
 1d0:	9800      	ldr	r0, [sp, #0]
 1d2:	b006      	add	sp, #24
 1d4:	bdb0      	pop	{r4, r5, r7, pc}

000001d6 <_ZN4core3ptr25swap_nonoverlapping_bytes17h65c982785a44abf4E>:
 1d6:	b5b0      	push	{r4, r5, r7, lr}
 1d8:	af02      	add	r7, sp, #8
 1da:	b0ac      	sub	sp, #176	; 0xb0
 1dc:	466c      	mov	r4, sp
 1de:	0964      	lsrs	r4, r4, #5
 1e0:	0164      	lsls	r4, r4, #5
 1e2:	46a5      	mov	sp, r4
 1e4:	4613      	mov	r3, r2
 1e6:	460c      	mov	r4, r1
 1e8:	4605      	mov	r5, r0
 1ea:	900b      	str	r0, [sp, #44]	; 0x2c
 1ec:	910c      	str	r1, [sp, #48]	; 0x30
 1ee:	920d      	str	r2, [sp, #52]	; 0x34
 1f0:	930a      	str	r3, [sp, #40]	; 0x28
 1f2:	9409      	str	r4, [sp, #36]	; 0x24
 1f4:	9508      	str	r5, [sp, #32]
 1f6:	f000 fa21 	bl	63c <_ZN4core3mem7size_of17hefecf3ed8aac54f3E>
 1fa:	900e      	str	r0, [sp, #56]	; 0x38
 1fc:	e7ff      	b.n	1fe <_ZN4core3ptr25swap_nonoverlapping_bytes17h65c982785a44abf4E+0x28>
 1fe:	2000      	movs	r0, #0
 200:	900f      	str	r0, [sp, #60]	; 0x3c
 202:	e7ff      	b.n	204 <_ZN4core3ptr25swap_nonoverlapping_bytes17h65c982785a44abf4E+0x2e>
 204:	980f      	ldr	r0, [sp, #60]	; 0x3c
 206:	990e      	ldr	r1, [sp, #56]	; 0x38
 208:	1840      	adds	r0, r0, r1
 20a:	990d      	ldr	r1, [sp, #52]	; 0x34
 20c:	4288      	cmp	r0, r1
 20e:	d905      	bls.n	21c <_ZN4core3ptr25swap_nonoverlapping_bytes17h65c982785a44abf4E+0x46>
 210:	e7ff      	b.n	212 <_ZN4core3ptr25swap_nonoverlapping_bytes17h65c982785a44abf4E+0x3c>
 212:	980f      	ldr	r0, [sp, #60]	; 0x3c
 214:	990d      	ldr	r1, [sp, #52]	; 0x34
 216:	4288      	cmp	r0, r1
 218:	d32d      	bcc.n	276 <_ZN4core3ptr25swap_nonoverlapping_bytes17h65c982785a44abf4E+0xa0>
 21a:	e059      	b.n	2d0 <_ZN4core3ptr25swap_nonoverlapping_bytes17h65c982785a44abf4E+0xfa>
 21c:	e7ff      	b.n	21e <_ZN4core3ptr25swap_nonoverlapping_bytes17h65c982785a44abf4E+0x48>
 21e:	a810      	add	r0, sp, #64	; 0x40
 220:	902a      	str	r0, [sp, #168]	; 0xa8
 222:	982a      	ldr	r0, [sp, #168]	; 0xa8
 224:	902b      	str	r0, [sp, #172]	; 0xac
 226:	982b      	ldr	r0, [sp, #172]	; 0xac
 228:	9007      	str	r0, [sp, #28]
 22a:	e7ff      	b.n	22c <_ZN4core3ptr25swap_nonoverlapping_bytes17h65c982785a44abf4E+0x56>
 22c:	9807      	ldr	r0, [sp, #28]
 22e:	9019      	str	r0, [sp, #100]	; 0x64
 230:	980b      	ldr	r0, [sp, #44]	; 0x2c
 232:	990f      	ldr	r1, [sp, #60]	; 0x3c
 234:	f000 f8bc 	bl	3b0 <_ZN4core3ptr31_$LT$impl$u20$$BP$mut$u20$T$GT$3add17h9051ecce81d0eab0E>
 238:	901a      	str	r0, [sp, #104]	; 0x68
 23a:	e7ff      	b.n	23c <_ZN4core3ptr25swap_nonoverlapping_bytes17h65c982785a44abf4E+0x66>
 23c:	980c      	ldr	r0, [sp, #48]	; 0x30
 23e:	990f      	ldr	r1, [sp, #60]	; 0x3c
 240:	f000 f8b6 	bl	3b0 <_ZN4core3ptr31_$LT$impl$u20$$BP$mut$u20$T$GT$3add17h9051ecce81d0eab0E>
 244:	901b      	str	r0, [sp, #108]	; 0x6c
 246:	e7ff      	b.n	248 <_ZN4core3ptr25swap_nonoverlapping_bytes17h65c982785a44abf4E+0x72>
 248:	981a      	ldr	r0, [sp, #104]	; 0x68
 24a:	9919      	ldr	r1, [sp, #100]	; 0x64
 24c:	9a0e      	ldr	r2, [sp, #56]	; 0x38
 24e:	f000 f95b 	bl	508 <_ZN4core10intrinsics19copy_nonoverlapping17h61b704c06e9eefa6E>
 252:	e7ff      	b.n	254 <_ZN4core3ptr25swap_nonoverlapping_bytes17h65c982785a44abf4E+0x7e>
 254:	981b      	ldr	r0, [sp, #108]	; 0x6c
 256:	991a      	ldr	r1, [sp, #104]	; 0x68
 258:	9a0e      	ldr	r2, [sp, #56]	; 0x38
 25a:	f000 f955 	bl	508 <_ZN4core10intrinsics19copy_nonoverlapping17h61b704c06e9eefa6E>
 25e:	e7ff      	b.n	260 <_ZN4core3ptr25swap_nonoverlapping_bytes17h65c982785a44abf4E+0x8a>
 260:	9819      	ldr	r0, [sp, #100]	; 0x64
 262:	991b      	ldr	r1, [sp, #108]	; 0x6c
 264:	9a0e      	ldr	r2, [sp, #56]	; 0x38
 266:	f000 f94f 	bl	508 <_ZN4core10intrinsics19copy_nonoverlapping17h61b704c06e9eefa6E>
 26a:	e7ff      	b.n	26c <_ZN4core3ptr25swap_nonoverlapping_bytes17h65c982785a44abf4E+0x96>
 26c:	980e      	ldr	r0, [sp, #56]	; 0x38
 26e:	990f      	ldr	r1, [sp, #60]	; 0x3c
 270:	1808      	adds	r0, r1, r0
 272:	900f      	str	r0, [sp, #60]	; 0x3c
 274:	e7c6      	b.n	204 <_ZN4core3ptr25swap_nonoverlapping_bytes17h65c982785a44abf4E+0x2e>
 276:	e7ff      	b.n	278 <_ZN4core3ptr25swap_nonoverlapping_bytes17h65c982785a44abf4E+0xa2>
 278:	980d      	ldr	r0, [sp, #52]	; 0x34
 27a:	990f      	ldr	r1, [sp, #60]	; 0x3c
 27c:	1a40      	subs	r0, r0, r1
 27e:	9024      	str	r0, [sp, #144]	; 0x90
 280:	a81c      	add	r0, sp, #112	; 0x70
 282:	9028      	str	r0, [sp, #160]	; 0xa0
 284:	9828      	ldr	r0, [sp, #160]	; 0xa0
 286:	9029      	str	r0, [sp, #164]	; 0xa4
 288:	9829      	ldr	r0, [sp, #164]	; 0xa4
 28a:	9006      	str	r0, [sp, #24]
 28c:	e7ff      	b.n	28e <_ZN4core3ptr25swap_nonoverlapping_bytes17h65c982785a44abf4E+0xb8>
 28e:	9806      	ldr	r0, [sp, #24]
 290:	9025      	str	r0, [sp, #148]	; 0x94
 292:	980b      	ldr	r0, [sp, #44]	; 0x2c
 294:	990f      	ldr	r1, [sp, #60]	; 0x3c
 296:	f000 f88b 	bl	3b0 <_ZN4core3ptr31_$LT$impl$u20$$BP$mut$u20$T$GT$3add17h9051ecce81d0eab0E>
 29a:	9026      	str	r0, [sp, #152]	; 0x98
 29c:	e7ff      	b.n	29e <_ZN4core3ptr25swap_nonoverlapping_bytes17h65c982785a44abf4E+0xc8>
 29e:	980c      	ldr	r0, [sp, #48]	; 0x30
 2a0:	990f      	ldr	r1, [sp, #60]	; 0x3c
 2a2:	f000 f885 	bl	3b0 <_ZN4core3ptr31_$LT$impl$u20$$BP$mut$u20$T$GT$3add17h9051ecce81d0eab0E>
 2a6:	9027      	str	r0, [sp, #156]	; 0x9c
 2a8:	e7ff      	b.n	2aa <_ZN4core3ptr25swap_nonoverlapping_bytes17h65c982785a44abf4E+0xd4>
 2aa:	9826      	ldr	r0, [sp, #152]	; 0x98
 2ac:	9925      	ldr	r1, [sp, #148]	; 0x94
 2ae:	9a24      	ldr	r2, [sp, #144]	; 0x90
 2b0:	f000 f92a 	bl	508 <_ZN4core10intrinsics19copy_nonoverlapping17h61b704c06e9eefa6E>
 2b4:	e7ff      	b.n	2b6 <_ZN4core3ptr25swap_nonoverlapping_bytes17h65c982785a44abf4E+0xe0>
 2b6:	9827      	ldr	r0, [sp, #156]	; 0x9c
 2b8:	9926      	ldr	r1, [sp, #152]	; 0x98
 2ba:	9a24      	ldr	r2, [sp, #144]	; 0x90
 2bc:	f000 f924 	bl	508 <_ZN4core10intrinsics19copy_nonoverlapping17h61b704c06e9eefa6E>
 2c0:	e7ff      	b.n	2c2 <_ZN4core3ptr25swap_nonoverlapping_bytes17h65c982785a44abf4E+0xec>
 2c2:	9825      	ldr	r0, [sp, #148]	; 0x94
 2c4:	9927      	ldr	r1, [sp, #156]	; 0x9c
 2c6:	9a24      	ldr	r2, [sp, #144]	; 0x90
 2c8:	f000 f91e 	bl	508 <_ZN4core10intrinsics19copy_nonoverlapping17h61b704c06e9eefa6E>
 2cc:	e7ff      	b.n	2ce <_ZN4core3ptr25swap_nonoverlapping_bytes17h65c982785a44abf4E+0xf8>
 2ce:	e7ff      	b.n	2d0 <_ZN4core3ptr25swap_nonoverlapping_bytes17h65c982785a44abf4E+0xfa>
 2d0:	1ffc      	subs	r4, r7, #7
 2d2:	3c01      	subs	r4, #1
 2d4:	46a5      	mov	sp, r4
 2d6:	bdb0      	pop	{r4, r5, r7, pc}

000002d8 <_ZN50_$LT$T$u20$as$u20$core..convert..From$LT$T$GT$$GT$4from17h8dd7ca8d92a0d255E>:
 2d8:	b082      	sub	sp, #8
 2da:	4601      	mov	r1, r0
 2dc:	9001      	str	r0, [sp, #4]
 2de:	9801      	ldr	r0, [sp, #4]
 2e0:	9100      	str	r1, [sp, #0]
 2e2:	b002      	add	sp, #8
 2e4:	4770      	bx	lr

000002e6 <_ZN50_$LT$T$u20$as$u20$core..convert..Into$LT$U$GT$$GT$4into17h51eed7ae1d319da3E>:
 2e6:	b580      	push	{r7, lr}
 2e8:	b084      	sub	sp, #16
 2ea:	4601      	mov	r1, r0
 2ec:	9003      	str	r0, [sp, #12]
 2ee:	9803      	ldr	r0, [sp, #12]
 2f0:	9102      	str	r1, [sp, #8]
 2f2:	f7ff fff1 	bl	2d8 <_ZN50_$LT$T$u20$as$u20$core..convert..From$LT$T$GT$$GT$4from17h8dd7ca8d92a0d255E>
 2f6:	9001      	str	r0, [sp, #4]
 2f8:	e7ff      	b.n	2fa <_ZN50_$LT$T$u20$as$u20$core..convert..Into$LT$U$GT$$GT$4into17h51eed7ae1d319da3E+0x14>
 2fa:	9801      	ldr	r0, [sp, #4]
 2fc:	b004      	add	sp, #16
 2fe:	bd80      	pop	{r7, pc}

00000300 <_ZN53_$LT$T$u20$as$u20$core..convert..TryFrom$LT$U$GT$$GT$8try_from17h198c849e2a3194f1E>:
 300:	b580      	push	{r7, lr}
 302:	b084      	sub	sp, #16
 304:	4601      	mov	r1, r0
 306:	9002      	str	r0, [sp, #8]
 308:	9802      	ldr	r0, [sp, #8]
 30a:	9101      	str	r1, [sp, #4]
 30c:	f7ff ffeb 	bl	2e6 <_ZN50_$LT$T$u20$as$u20$core..convert..Into$LT$U$GT$$GT$4into17h51eed7ae1d319da3E>
 310:	9000      	str	r0, [sp, #0]
 312:	e7ff      	b.n	314 <_ZN53_$LT$T$u20$as$u20$core..convert..TryFrom$LT$U$GT$$GT$8try_from17h198c849e2a3194f1E+0x14>
 314:	9800      	ldr	r0, [sp, #0]
 316:	9003      	str	r0, [sp, #12]
 318:	9803      	ldr	r0, [sp, #12]
 31a:	b004      	add	sp, #16
 31c:	bd80      	pop	{r7, pc}

0000031e <_ZN4core3ptr19swap_nonoverlapping17h9efc7ac1015ba08aE>:
 31e:	b5b0      	push	{r4, r5, r7, lr}
 320:	b08a      	sub	sp, #40	; 0x28
 322:	4613      	mov	r3, r2
 324:	460c      	mov	r4, r1
 326:	4605      	mov	r5, r0
 328:	9004      	str	r0, [sp, #16]
 32a:	9105      	str	r1, [sp, #20]
 32c:	9206      	str	r2, [sp, #24]
 32e:	9804      	ldr	r0, [sp, #16]
 330:	9007      	str	r0, [sp, #28]
 332:	9805      	ldr	r0, [sp, #20]
 334:	9008      	str	r0, [sp, #32]
 336:	9303      	str	r3, [sp, #12]
 338:	9402      	str	r4, [sp, #8]
 33a:	9501      	str	r5, [sp, #4]
 33c:	f000 f975 	bl	62a <_ZN4core3mem7size_of17h4f6810cfff161cd3E>
 340:	9000      	str	r0, [sp, #0]
 342:	e7ff      	b.n	344 <_ZN4core3ptr19swap_nonoverlapping17h9efc7ac1015ba08aE+0x26>
 344:	9806      	ldr	r0, [sp, #24]
 346:	9900      	ldr	r1, [sp, #0]
 348:	4348      	muls	r0, r1
 34a:	9009      	str	r0, [sp, #36]	; 0x24
 34c:	9807      	ldr	r0, [sp, #28]
 34e:	9908      	ldr	r1, [sp, #32]
 350:	9a09      	ldr	r2, [sp, #36]	; 0x24
 352:	f7ff ff40 	bl	1d6 <_ZN4core3ptr25swap_nonoverlapping_bytes17h65c982785a44abf4E>
 356:	e7ff      	b.n	358 <_ZN4core3ptr19swap_nonoverlapping17h9efc7ac1015ba08aE+0x3a>
 358:	b00a      	add	sp, #40	; 0x28
 35a:	bdb0      	pop	{r4, r5, r7, pc}

0000035c <_ZN4core3ptr23swap_nonoverlapping_one17hd2b19861d8d6ec9eE>:
 35c:	b580      	push	{r7, lr}
 35e:	b086      	sub	sp, #24
 360:	460a      	mov	r2, r1
 362:	4603      	mov	r3, r0
 364:	9003      	str	r0, [sp, #12]
 366:	9104      	str	r1, [sp, #16]
 368:	9202      	str	r2, [sp, #8]
 36a:	9301      	str	r3, [sp, #4]
 36c:	f000 f95d 	bl	62a <_ZN4core3mem7size_of17h4f6810cfff161cd3E>
 370:	9000      	str	r0, [sp, #0]
 372:	e7ff      	b.n	374 <_ZN4core3ptr23swap_nonoverlapping_one17hd2b19861d8d6ec9eE+0x18>
 374:	9800      	ldr	r0, [sp, #0]
 376:	281f      	cmp	r0, #31
 378:	d811      	bhi.n	39e <_ZN4core3ptr23swap_nonoverlapping_one17hd2b19861d8d6ec9eE+0x42>
 37a:	e7ff      	b.n	37c <_ZN4core3ptr23swap_nonoverlapping_one17hd2b19861d8d6ec9eE+0x20>
 37c:	9803      	ldr	r0, [sp, #12]
 37e:	f000 f839 	bl	3f4 <_ZN4core3ptr4read17ha415a0ede385f62cE>
 382:	9005      	str	r0, [sp, #20]
 384:	e7ff      	b.n	386 <_ZN4core3ptr23swap_nonoverlapping_one17hd2b19861d8d6ec9eE+0x2a>
 386:	9804      	ldr	r0, [sp, #16]
 388:	9903      	ldr	r1, [sp, #12]
 38a:	2201      	movs	r2, #1
 38c:	f000 f8d0 	bl	530 <_ZN4core10intrinsics19copy_nonoverlapping17h8418a7e77935bd1fE>
 390:	e7ff      	b.n	392 <_ZN4core3ptr23swap_nonoverlapping_one17hd2b19861d8d6ec9eE+0x36>
 392:	9804      	ldr	r0, [sp, #16]
 394:	9905      	ldr	r1, [sp, #20]
 396:	f000 f84e 	bl	436 <_ZN4core3ptr5write17h8aa544342306c46cE>
 39a:	e7ff      	b.n	39c <_ZN4core3ptr23swap_nonoverlapping_one17hd2b19861d8d6ec9eE+0x40>
 39c:	e006      	b.n	3ac <_ZN4core3ptr23swap_nonoverlapping_one17hd2b19861d8d6ec9eE+0x50>
 39e:	9803      	ldr	r0, [sp, #12]
 3a0:	9904      	ldr	r1, [sp, #16]
 3a2:	2201      	movs	r2, #1
 3a4:	f7ff ffbb 	bl	31e <_ZN4core3ptr19swap_nonoverlapping17h9efc7ac1015ba08aE>
 3a8:	e7ff      	b.n	3aa <_ZN4core3ptr23swap_nonoverlapping_one17hd2b19861d8d6ec9eE+0x4e>
 3aa:	e7ff      	b.n	3ac <_ZN4core3ptr23swap_nonoverlapping_one17hd2b19861d8d6ec9eE+0x50>
 3ac:	b006      	add	sp, #24
 3ae:	bd80      	pop	{r7, pc}

000003b0 <_ZN4core3ptr31_$LT$impl$u20$$BP$mut$u20$T$GT$3add17h9051ecce81d0eab0E>:
 3b0:	b580      	push	{r7, lr}
 3b2:	b086      	sub	sp, #24
 3b4:	460a      	mov	r2, r1
 3b6:	4603      	mov	r3, r0
 3b8:	9004      	str	r0, [sp, #16]
 3ba:	9105      	str	r1, [sp, #20]
 3bc:	9804      	ldr	r0, [sp, #16]
 3be:	9905      	ldr	r1, [sp, #20]
 3c0:	9203      	str	r2, [sp, #12]
 3c2:	9302      	str	r3, [sp, #8]
 3c4:	f000 f805 	bl	3d2 <_ZN4core3ptr31_$LT$impl$u20$$BP$mut$u20$T$GT$6offset17habf0a94c6ac138adE>
 3c8:	9001      	str	r0, [sp, #4]
 3ca:	e7ff      	b.n	3cc <_ZN4core3ptr31_$LT$impl$u20$$BP$mut$u20$T$GT$3add17h9051ecce81d0eab0E+0x1c>
 3cc:	9801      	ldr	r0, [sp, #4]
 3ce:	b006      	add	sp, #24
 3d0:	bd80      	pop	{r7, pc}

000003d2 <_ZN4core3ptr31_$LT$impl$u20$$BP$mut$u20$T$GT$6offset17habf0a94c6ac138adE>:
 3d2:	b086      	sub	sp, #24
 3d4:	460a      	mov	r2, r1
 3d6:	4603      	mov	r3, r0
 3d8:	9003      	str	r0, [sp, #12]
 3da:	9104      	str	r1, [sp, #16]
 3dc:	9803      	ldr	r0, [sp, #12]
 3de:	9904      	ldr	r1, [sp, #16]
 3e0:	1840      	adds	r0, r0, r1
 3e2:	9005      	str	r0, [sp, #20]
 3e4:	9805      	ldr	r0, [sp, #20]
 3e6:	9202      	str	r2, [sp, #8]
 3e8:	9301      	str	r3, [sp, #4]
 3ea:	9000      	str	r0, [sp, #0]
 3ec:	e7ff      	b.n	3ee <_ZN4core3ptr31_$LT$impl$u20$$BP$mut$u20$T$GT$6offset17habf0a94c6ac138adE+0x1c>
 3ee:	9800      	ldr	r0, [sp, #0]
 3f0:	b006      	add	sp, #24
 3f2:	4770      	bx	lr

000003f4 <_ZN4core3ptr4read17ha415a0ede385f62cE>:
 3f4:	b580      	push	{r7, lr}
 3f6:	b08c      	sub	sp, #48	; 0x30
 3f8:	4601      	mov	r1, r0
 3fa:	9005      	str	r0, [sp, #20]
 3fc:	9807      	ldr	r0, [sp, #28]
 3fe:	9006      	str	r0, [sp, #24]
 400:	9104      	str	r1, [sp, #16]
 402:	e7ff      	b.n	404 <_ZN4core3ptr4read17ha415a0ede385f62cE+0x10>
 404:	9805      	ldr	r0, [sp, #20]
 406:	a906      	add	r1, sp, #24
 408:	910a      	str	r1, [sp, #40]	; 0x28
 40a:	990a      	ldr	r1, [sp, #40]	; 0x28
 40c:	910b      	str	r1, [sp, #44]	; 0x2c
 40e:	990b      	ldr	r1, [sp, #44]	; 0x2c
 410:	9003      	str	r0, [sp, #12]
 412:	9102      	str	r1, [sp, #8]
 414:	e7ff      	b.n	416 <_ZN4core3ptr4read17ha415a0ede385f62cE+0x22>
 416:	2201      	movs	r2, #1
 418:	9803      	ldr	r0, [sp, #12]
 41a:	9902      	ldr	r1, [sp, #8]
 41c:	f000 f888 	bl	530 <_ZN4core10intrinsics19copy_nonoverlapping17h8418a7e77935bd1fE>
 420:	e7ff      	b.n	422 <_ZN4core3ptr4read17ha415a0ede385f62cE+0x2e>
 422:	9806      	ldr	r0, [sp, #24]
 424:	9008      	str	r0, [sp, #32]
 426:	9808      	ldr	r0, [sp, #32]
 428:	9009      	str	r0, [sp, #36]	; 0x24
 42a:	9809      	ldr	r0, [sp, #36]	; 0x24
 42c:	9001      	str	r0, [sp, #4]
 42e:	e7ff      	b.n	430 <_ZN4core3ptr4read17ha415a0ede385f62cE+0x3c>
 430:	9801      	ldr	r0, [sp, #4]
 432:	b00c      	add	sp, #48	; 0x30
 434:	bd80      	pop	{r7, pc}

00000436 <_ZN4core3ptr5write17h8aa544342306c46cE>:
 436:	b084      	sub	sp, #16
 438:	460a      	mov	r2, r1
 43a:	4603      	mov	r3, r0
 43c:	9002      	str	r0, [sp, #8]
 43e:	9103      	str	r1, [sp, #12]
 440:	9802      	ldr	r0, [sp, #8]
 442:	9903      	ldr	r1, [sp, #12]
 444:	6001      	str	r1, [r0, #0]
 446:	9201      	str	r2, [sp, #4]
 448:	9300      	str	r3, [sp, #0]
 44a:	b004      	add	sp, #16
 44c:	4770      	bx	lr

0000044e <rust_begin_unwind>:
 44e:	b082      	sub	sp, #8
 450:	4601      	mov	r1, r0
 452:	9001      	str	r0, [sp, #4]
 454:	9100      	str	r1, [sp, #0]
 456:	e7ff      	b.n	458 <rust_begin_unwind+0xa>
 458:	e7fe      	b.n	458 <rust_begin_unwind+0xa>
 45a:	d4d4      	bmi.n	406 <_ZN4core3ptr4read17ha415a0ede385f62cE+0x12>

0000045c <main>:
 45c:	b090      	sub	sp, #64	; 0x40
 45e:	4827      	ldr	r0, [pc, #156]	; (4fc <main+0xa0>)
 460:	2101      	movs	r1, #1
 462:	0289      	lsls	r1, r1, #10
 464:	f000 f878 	bl	558 <_ZN4core5slice29_$LT$impl$u20$$u5b$T$u5d$$GT$3len17h96f182d33eff4a59E>
 468:	9006      	str	r0, [sp, #24]
 46a:	e7ff      	b.n	46c <main+0x10>
 46c:	2000      	movs	r0, #0
 46e:	9007      	str	r0, [sp, #28]
 470:	9806      	ldr	r0, [sp, #24]
 472:	9008      	str	r0, [sp, #32]
 474:	9807      	ldr	r0, [sp, #28]
 476:	9908      	ldr	r1, [sp, #32]
 478:	f7ff fe8b 	bl	192 <_ZN63_$LT$I$u20$as$u20$core..iter..traits..collect..IntoIterator$GT$9into_iter17hd8917e2df7a43f20E>
 47c:	9005      	str	r0, [sp, #20]
 47e:	9104      	str	r1, [sp, #16]
 480:	e7ff      	b.n	482 <main+0x26>
 482:	9805      	ldr	r0, [sp, #20]
 484:	9009      	str	r0, [sp, #36]	; 0x24
 486:	9904      	ldr	r1, [sp, #16]
 488:	910a      	str	r1, [sp, #40]	; 0x28
 48a:	e7ff      	b.n	48c <main+0x30>
 48c:	a809      	add	r0, sp, #36	; 0x24
 48e:	f7ff fe32 	bl	f6 <_ZN4core4iter5range101_$LT$impl$u20$core..iter..traits..iterator..Iterator$u20$for$u20$core..ops..range..Range$LT$A$GT$$GT$4next17h3950065e276e4388E>
 492:	910d      	str	r1, [sp, #52]	; 0x34
 494:	900c      	str	r0, [sp, #48]	; 0x30
 496:	e7ff      	b.n	498 <main+0x3c>
 498:	980c      	ldr	r0, [sp, #48]	; 0x30
 49a:	2800      	cmp	r0, #0
 49c:	9003      	str	r0, [sp, #12]
 49e:	d011      	beq.n	4c4 <main+0x68>
 4a0:	e7ff      	b.n	4a2 <main+0x46>
 4a2:	9803      	ldr	r0, [sp, #12]
 4a4:	2801      	cmp	r0, #1
 4a6:	d001      	beq.n	4ac <main+0x50>
 4a8:	e7ff      	b.n	4aa <main+0x4e>
 4aa:	defe      	udf	#254	; 0xfe
 4ac:	980d      	ldr	r0, [sp, #52]	; 0x34
 4ae:	900e      	str	r0, [sp, #56]	; 0x38
 4b0:	980e      	ldr	r0, [sp, #56]	; 0x38
 4b2:	900b      	str	r0, [sp, #44]	; 0x2c
 4b4:	980b      	ldr	r0, [sp, #44]	; 0x2c
 4b6:	900f      	str	r0, [sp, #60]	; 0x3c
 4b8:	980f      	ldr	r0, [sp, #60]	; 0x3c
 4ba:	0a81      	lsrs	r1, r0, #10
 4bc:	2900      	cmp	r1, #0
 4be:	9002      	str	r0, [sp, #8]
 4c0:	d001      	beq.n	4c6 <main+0x6a>
 4c2:	e00f      	b.n	4e4 <main+0x88>
 4c4:	e00d      	b.n	4e2 <main+0x86>
 4c6:	480d      	ldr	r0, [pc, #52]	; (4fc <main+0xa0>)
 4c8:	9902      	ldr	r1, [sp, #8]
 4ca:	5c40      	ldrb	r0, [r0, r1]
 4cc:	1c40      	adds	r0, r0, #1
 4ce:	b2c2      	uxtb	r2, r0
 4d0:	4282      	cmp	r2, r0
 4d2:	9001      	str	r0, [sp, #4]
 4d4:	d10d      	bne.n	4f2 <main+0x96>
 4d6:	e7ff      	b.n	4d8 <main+0x7c>
 4d8:	4808      	ldr	r0, [pc, #32]	; (4fc <main+0xa0>)
 4da:	9901      	ldr	r1, [sp, #4]
 4dc:	9a02      	ldr	r2, [sp, #8]
 4de:	5481      	strb	r1, [r0, r2]
 4e0:	e7d4      	b.n	48c <main+0x30>
 4e2:	e7fe      	b.n	4e2 <main+0x86>
 4e4:	4806      	ldr	r0, [pc, #24]	; (500 <main+0xa4>)
 4e6:	2101      	movs	r1, #1
 4e8:	028a      	lsls	r2, r1, #10
 4ea:	9902      	ldr	r1, [sp, #8]
 4ec:	f000 f8d6 	bl	69c <_ZN4core9panicking18panic_bounds_check17h794d18f1ca9e50a8E>
 4f0:	defe      	udf	#254	; 0xfe
 4f2:	4804      	ldr	r0, [pc, #16]	; (504 <main+0xa8>)
 4f4:	f000 f8b4 	bl	660 <_ZN4core9panicking5panic17h138a849f37d3ac2dE>
 4f8:	defe      	udf	#254	; 0xfe
 4fa:	46c0      	nop			; (mov r8, r8)
 4fc:	20000000 	.word	0x20000000
 500:	00000d8c 	.word	0x00000d8c
 504:	00000dbc 	.word	0x00000dbc

00000508 <_ZN4core10intrinsics19copy_nonoverlapping17h61b704c06e9eefa6E>:
 508:	b5b0      	push	{r4, r5, r7, lr}
 50a:	b088      	sub	sp, #32
 50c:	4613      	mov	r3, r2
 50e:	460c      	mov	r4, r1
 510:	4605      	mov	r5, r0
 512:	9005      	str	r0, [sp, #20]
 514:	9106      	str	r1, [sp, #24]
 516:	9207      	str	r2, [sp, #28]
 518:	9905      	ldr	r1, [sp, #20]
 51a:	9806      	ldr	r0, [sp, #24]
 51c:	9a07      	ldr	r2, [sp, #28]
 51e:	9304      	str	r3, [sp, #16]
 520:	9403      	str	r4, [sp, #12]
 522:	9502      	str	r5, [sp, #8]
 524:	f000 fa71 	bl	a0a <__aeabi_memcpy>
 528:	9001      	str	r0, [sp, #4]
 52a:	e7ff      	b.n	52c <_ZN4core10intrinsics19copy_nonoverlapping17h61b704c06e9eefa6E+0x24>
 52c:	b008      	add	sp, #32
 52e:	bdb0      	pop	{r4, r5, r7, pc}

00000530 <_ZN4core10intrinsics19copy_nonoverlapping17h8418a7e77935bd1fE>:
 530:	b5b0      	push	{r4, r5, r7, lr}
 532:	b086      	sub	sp, #24
 534:	4613      	mov	r3, r2
 536:	460c      	mov	r4, r1
 538:	4605      	mov	r5, r0
 53a:	9003      	str	r0, [sp, #12]
 53c:	9104      	str	r1, [sp, #16]
 53e:	9205      	str	r2, [sp, #20]
 540:	9903      	ldr	r1, [sp, #12]
 542:	9804      	ldr	r0, [sp, #16]
 544:	9a05      	ldr	r2, [sp, #20]
 546:	0092      	lsls	r2, r2, #2
 548:	9302      	str	r3, [sp, #8]
 54a:	9401      	str	r4, [sp, #4]
 54c:	9500      	str	r5, [sp, #0]
 54e:	f000 fa65 	bl	a1c <__aeabi_memcpy4>
 552:	e7ff      	b.n	554 <_ZN4core10intrinsics19copy_nonoverlapping17h8418a7e77935bd1fE+0x24>
 554:	b006      	add	sp, #24
 556:	bdb0      	pop	{r4, r5, r7, pc}

00000558 <_ZN4core5slice29_$LT$impl$u20$$u5b$T$u5d$$GT$3len17h96f182d33eff4a59E>:
 558:	b086      	sub	sp, #24
 55a:	460a      	mov	r2, r1
 55c:	4603      	mov	r3, r0
 55e:	9002      	str	r0, [sp, #8]
 560:	9103      	str	r1, [sp, #12]
 562:	9802      	ldr	r0, [sp, #8]
 564:	9903      	ldr	r1, [sp, #12]
 566:	9004      	str	r0, [sp, #16]
 568:	9105      	str	r1, [sp, #20]
 56a:	9805      	ldr	r0, [sp, #20]
 56c:	9201      	str	r2, [sp, #4]
 56e:	9300      	str	r3, [sp, #0]
 570:	b006      	add	sp, #24
 572:	4770      	bx	lr

00000574 <_ZN4core3num23_$LT$impl$u20$usize$GT$11checked_add17hd01672ece579c4aaE>:
 574:	b580      	push	{r7, lr}
 576:	b08a      	sub	sp, #40	; 0x28
 578:	460a      	mov	r2, r1
 57a:	4603      	mov	r3, r0
 57c:	9004      	str	r0, [sp, #16]
 57e:	9105      	str	r1, [sp, #20]
 580:	9804      	ldr	r0, [sp, #16]
 582:	9905      	ldr	r1, [sp, #20]
 584:	9203      	str	r2, [sp, #12]
 586:	9302      	str	r3, [sp, #8]
 588:	f000 f81b 	bl	5c2 <_ZN4core3num23_$LT$impl$u20$usize$GT$15overflowing_add17hf1be80ee8180a4e6E>
 58c:	9001      	str	r0, [sp, #4]
 58e:	9100      	str	r1, [sp, #0]
 590:	e7ff      	b.n	592 <_ZN4core3num23_$LT$impl$u20$usize$GT$11checked_add17hd01672ece579c4aaE+0x1e>
 592:	9801      	ldr	r0, [sp, #4]
 594:	9008      	str	r0, [sp, #32]
 596:	2101      	movs	r1, #1
 598:	9a00      	ldr	r2, [sp, #0]
 59a:	400a      	ands	r2, r1
 59c:	a909      	add	r1, sp, #36	; 0x24
 59e:	700a      	strb	r2, [r1, #0]
 5a0:	7809      	ldrb	r1, [r1, #0]
 5a2:	07c9      	lsls	r1, r1, #31
 5a4:	2900      	cmp	r1, #0
 5a6:	d003      	beq.n	5b0 <_ZN4core3num23_$LT$impl$u20$usize$GT$11checked_add17hd01672ece579c4aaE+0x3c>
 5a8:	e7ff      	b.n	5aa <_ZN4core3num23_$LT$impl$u20$usize$GT$11checked_add17hd01672ece579c4aaE+0x36>
 5aa:	2000      	movs	r0, #0
 5ac:	9006      	str	r0, [sp, #24]
 5ae:	e004      	b.n	5ba <_ZN4core3num23_$LT$impl$u20$usize$GT$11checked_add17hd01672ece579c4aaE+0x46>
 5b0:	9808      	ldr	r0, [sp, #32]
 5b2:	9007      	str	r0, [sp, #28]
 5b4:	2001      	movs	r0, #1
 5b6:	9006      	str	r0, [sp, #24]
 5b8:	e7ff      	b.n	5ba <_ZN4core3num23_$LT$impl$u20$usize$GT$11checked_add17hd01672ece579c4aaE+0x46>
 5ba:	9806      	ldr	r0, [sp, #24]
 5bc:	9907      	ldr	r1, [sp, #28]
 5be:	b00a      	add	sp, #40	; 0x28
 5c0:	bd80      	pop	{r7, pc}

000005c2 <_ZN4core3num23_$LT$impl$u20$usize$GT$15overflowing_add17hf1be80ee8180a4e6E>:
 5c2:	b510      	push	{r4, lr}
 5c4:	b08c      	sub	sp, #48	; 0x30
 5c6:	460a      	mov	r2, r1
 5c8:	4603      	mov	r3, r0
 5ca:	9004      	str	r0, [sp, #16]
 5cc:	9105      	str	r1, [sp, #20]
 5ce:	9804      	ldr	r0, [sp, #16]
 5d0:	9905      	ldr	r1, [sp, #20]
 5d2:	2400      	movs	r4, #0
 5d4:	1840      	adds	r0, r0, r1
 5d6:	4164      	adcs	r4, r4
 5d8:	900a      	str	r0, [sp, #40]	; 0x28
 5da:	a80a      	add	r0, sp, #40	; 0x28
 5dc:	7104      	strb	r4, [r0, #4]
 5de:	980a      	ldr	r0, [sp, #40]	; 0x28
 5e0:	990b      	ldr	r1, [sp, #44]	; 0x2c
 5e2:	9203      	str	r2, [sp, #12]
 5e4:	9302      	str	r3, [sp, #8]
 5e6:	9001      	str	r0, [sp, #4]
 5e8:	9100      	str	r1, [sp, #0]
 5ea:	e7ff      	b.n	5ec <_ZN4core3num23_$LT$impl$u20$usize$GT$15overflowing_add17hf1be80ee8180a4e6E+0x2a>
 5ec:	9801      	ldr	r0, [sp, #4]
 5ee:	9008      	str	r0, [sp, #32]
 5f0:	2101      	movs	r1, #1
 5f2:	9a00      	ldr	r2, [sp, #0]
 5f4:	400a      	ands	r2, r1
 5f6:	a909      	add	r1, sp, #36	; 0x24
 5f8:	700a      	strb	r2, [r1, #0]
 5fa:	9908      	ldr	r1, [sp, #32]
 5fc:	9a09      	ldr	r2, [sp, #36]	; 0x24
 5fe:	9106      	str	r1, [sp, #24]
 600:	a906      	add	r1, sp, #24
 602:	710a      	strb	r2, [r1, #4]
 604:	9806      	ldr	r0, [sp, #24]
 606:	7909      	ldrb	r1, [r1, #4]
 608:	b00c      	add	sp, #48	; 0x30
 60a:	bd10      	pop	{r4, pc}

0000060c <_ZN4core3mem4swap17hf5e65ce2ff753d30E>:
 60c:	b580      	push	{r7, lr}
 60e:	b084      	sub	sp, #16
 610:	460a      	mov	r2, r1
 612:	4603      	mov	r3, r0
 614:	9002      	str	r0, [sp, #8]
 616:	9103      	str	r1, [sp, #12]
 618:	9802      	ldr	r0, [sp, #8]
 61a:	9903      	ldr	r1, [sp, #12]
 61c:	9201      	str	r2, [sp, #4]
 61e:	9300      	str	r3, [sp, #0]
 620:	f7ff fe9c 	bl	35c <_ZN4core3ptr23swap_nonoverlapping_one17hd2b19861d8d6ec9eE>
 624:	e7ff      	b.n	626 <_ZN4core3mem4swap17hf5e65ce2ff753d30E+0x1a>
 626:	b004      	add	sp, #16
 628:	bd80      	pop	{r7, pc}

0000062a <_ZN4core3mem7size_of17h4f6810cfff161cd3E>:
 62a:	b082      	sub	sp, #8
 62c:	2004      	movs	r0, #4
 62e:	9001      	str	r0, [sp, #4]
 630:	9801      	ldr	r0, [sp, #4]
 632:	9000      	str	r0, [sp, #0]
 634:	e7ff      	b.n	636 <_ZN4core3mem7size_of17h4f6810cfff161cd3E+0xc>
 636:	9800      	ldr	r0, [sp, #0]
 638:	b002      	add	sp, #8
 63a:	4770      	bx	lr

0000063c <_ZN4core3mem7size_of17hefecf3ed8aac54f3E>:
 63c:	b082      	sub	sp, #8
 63e:	2020      	movs	r0, #32
 640:	9001      	str	r0, [sp, #4]
 642:	9801      	ldr	r0, [sp, #4]
 644:	9000      	str	r0, [sp, #0]
 646:	e7ff      	b.n	648 <_ZN4core3mem7size_of17hefecf3ed8aac54f3E+0xc>
 648:	9800      	ldr	r0, [sp, #0]
 64a:	b002      	add	sp, #8
 64c:	4770      	bx	lr

0000064e <_ZN4core3ptr18real_drop_in_place17h605f2bc604187c4eE>:
 64e:	4770      	bx	lr

00000650 <_ZN36_$LT$T$u20$as$u20$core..any..Any$GT$7type_id17h60b349e3a3967a18E>:
 650:	4801      	ldr	r0, [pc, #4]	; (658 <_ZN36_$LT$T$u20$as$u20$core..any..Any$GT$7type_id17h60b349e3a3967a18E+0x8>)
 652:	4902      	ldr	r1, [pc, #8]	; (65c <_ZN36_$LT$T$u20$as$u20$core..any..Any$GT$7type_id17h60b349e3a3967a18E+0xc>)
 654:	4770      	bx	lr
 656:	46c0      	nop			; (mov r8, r8)
 658:	5c1d2a5e 	.word	0x5c1d2a5e
 65c:	1681b2fd 	.word	0x1681b2fd

00000660 <_ZN4core9panicking5panic17h138a849f37d3ac2dE>:
 660:	b08c      	sub	sp, #48	; 0x30
 662:	c818      	ldmia	r0!, {r3, r4}
 664:	3808      	subs	r0, #8
 666:	4605      	mov	r5, r0
 668:	3508      	adds	r5, #8
 66a:	cd26      	ldmia	r5, {r1, r2, r5}
 66c:	6940      	ldr	r0, [r0, #20]
 66e:	9407      	str	r4, [sp, #28]
 670:	9306      	str	r3, [sp, #24]
 672:	2300      	movs	r3, #0
 674:	9305      	str	r3, [sp, #20]
 676:	4c08      	ldr	r4, [pc, #32]	; (698 <_ZN4core9panicking5panic17h138a849f37d3ac2dE+0x38>)
 678:	9404      	str	r4, [sp, #16]
 67a:	9303      	str	r3, [sp, #12]
 67c:	9302      	str	r3, [sp, #8]
 67e:	2301      	movs	r3, #1
 680:	9301      	str	r3, [sp, #4]
 682:	ab06      	add	r3, sp, #24
 684:	9300      	str	r3, [sp, #0]
 686:	900b      	str	r0, [sp, #44]	; 0x2c
 688:	a808      	add	r0, sp, #32
 68a:	c026      	stmia	r0!, {r1, r2, r5}
 68c:	4668      	mov	r0, sp
 68e:	a908      	add	r1, sp, #32
 690:	f000 f822 	bl	6d8 <_ZN4core9panicking9panic_fmt17hbfe32cf8392a510cE>
 694:	defe      	udf	#254	; 0xfe
 696:	46c0      	nop			; (mov r8, r8)
 698:	00000dd4 	.word	0x00000dd4

0000069c <_ZN4core9panicking18panic_bounds_check17h794d18f1ca9e50a8E>:
 69c:	b08c      	sub	sp, #48	; 0x30
 69e:	4603      	mov	r3, r0
 6a0:	9201      	str	r2, [sp, #4]
 6a2:	9100      	str	r1, [sp, #0]
 6a4:	480a      	ldr	r0, [pc, #40]	; (6d0 <_ZN4core9panicking18panic_bounds_check17h794d18f1ca9e50a8E+0x34>)
 6a6:	900b      	str	r0, [sp, #44]	; 0x2c
 6a8:	4669      	mov	r1, sp
 6aa:	910a      	str	r1, [sp, #40]	; 0x28
 6ac:	9009      	str	r0, [sp, #36]	; 0x24
 6ae:	a801      	add	r0, sp, #4
 6b0:	9008      	str	r0, [sp, #32]
 6b2:	2002      	movs	r0, #2
 6b4:	9007      	str	r0, [sp, #28]
 6b6:	a908      	add	r1, sp, #32
 6b8:	9106      	str	r1, [sp, #24]
 6ba:	2100      	movs	r1, #0
 6bc:	9105      	str	r1, [sp, #20]
 6be:	9104      	str	r1, [sp, #16]
 6c0:	9003      	str	r0, [sp, #12]
 6c2:	4804      	ldr	r0, [pc, #16]	; (6d4 <_ZN4core9panicking18panic_bounds_check17h794d18f1ca9e50a8E+0x38>)
 6c4:	9002      	str	r0, [sp, #8]
 6c6:	a802      	add	r0, sp, #8
 6c8:	4619      	mov	r1, r3
 6ca:	f000 f805 	bl	6d8 <_ZN4core9panicking9panic_fmt17hbfe32cf8392a510cE>
 6ce:	defe      	udf	#254	; 0xfe
 6d0:	000009fd 	.word	0x000009fd
 6d4:	00000e24 	.word	0x00000e24

000006d8 <_ZN4core9panicking9panic_fmt17hbfe32cf8392a510cE>:
 6d8:	b088      	sub	sp, #32
 6da:	c91c      	ldmia	r1!, {r2, r3, r4}
 6dc:	6809      	ldr	r1, [r1, #0]
 6de:	9107      	str	r1, [sp, #28]
 6e0:	a903      	add	r1, sp, #12
 6e2:	c11d      	stmia	r1!, {r0, r2, r3, r4}
 6e4:	4803      	ldr	r0, [pc, #12]	; (6f4 <_ZN4core9panicking9panic_fmt17hbfe32cf8392a510cE+0x1c>)
 6e6:	9002      	str	r0, [sp, #8]
 6e8:	4803      	ldr	r0, [pc, #12]	; (6f8 <_ZN4core9panicking9panic_fmt17hbfe32cf8392a510cE+0x20>)
 6ea:	9001      	str	r0, [sp, #4]
 6ec:	a801      	add	r0, sp, #4
 6ee:	f7ff feae 	bl	44e <rust_begin_unwind>
 6f2:	defe      	udf	#254	; 0xfe
 6f4:	00000e00 	.word	0x00000e00
 6f8:	00000dd4 	.word	0x00000dd4

000006fc <_ZN4core3fmt9Formatter12pad_integral17hfed4c478dcefa03dE>:
 6fc:	b5f0      	push	{r4, r5, r6, r7, lr}
 6fe:	b087      	sub	sp, #28
 700:	4604      	mov	r4, r0
 702:	9f0d      	ldr	r7, [sp, #52]	; 0x34
 704:	2900      	cmp	r1, #0
 706:	d006      	beq.n	716 <_ZN4core3fmt9Formatter12pad_integral17hfed4c478dcefa03dE+0x1a>
 708:	6820      	ldr	r0, [r4, #0]
 70a:	2101      	movs	r1, #1
 70c:	4001      	ands	r1, r0
 70e:	2900      	cmp	r1, #0
 710:	d006      	beq.n	720 <_ZN4core3fmt9Formatter12pad_integral17hfed4c478dcefa03dE+0x24>
 712:	252b      	movs	r5, #43	; 0x2b
 714:	e006      	b.n	724 <_ZN4core3fmt9Formatter12pad_integral17hfed4c478dcefa03dE+0x28>
 716:	6820      	ldr	r0, [r4, #0]
 718:	1c7d      	adds	r5, r7, #1
 71a:	212d      	movs	r1, #45	; 0x2d
 71c:	9104      	str	r1, [sp, #16]
 71e:	e003      	b.n	728 <_ZN4core3fmt9Formatter12pad_integral17hfed4c478dcefa03dE+0x2c>
 720:	2511      	movs	r5, #17
 722:	042d      	lsls	r5, r5, #16
 724:	9504      	str	r5, [sp, #16]
 726:	19cd      	adds	r5, r1, r7
 728:	0746      	lsls	r6, r0, #29
 72a:	2100      	movs	r1, #0
 72c:	2e00      	cmp	r6, #0
 72e:	d402      	bmi.n	736 <_ZN4core3fmt9Formatter12pad_integral17hfed4c478dcefa03dE+0x3a>
 730:	9106      	str	r1, [sp, #24]
 732:	9105      	str	r1, [sp, #20]
 734:	e016      	b.n	764 <_ZN4core3fmt9Formatter12pad_integral17hfed4c478dcefa03dE+0x68>
 736:	9703      	str	r7, [sp, #12]
 738:	2b00      	cmp	r3, #0
 73a:	9306      	str	r3, [sp, #24]
 73c:	9205      	str	r2, [sp, #20]
 73e:	d00c      	beq.n	75a <_ZN4core3fmt9Formatter12pad_integral17hfed4c478dcefa03dE+0x5e>
 740:	2100      	movs	r1, #0
 742:	461f      	mov	r7, r3
 744:	4613      	mov	r3, r2
 746:	781e      	ldrb	r6, [r3, #0]
 748:	09b6      	lsrs	r6, r6, #6
 74a:	2e02      	cmp	r6, #2
 74c:	d100      	bne.n	750 <_ZN4core3fmt9Formatter12pad_integral17hfed4c478dcefa03dE+0x54>
 74e:	1c49      	adds	r1, r1, #1
 750:	1e7f      	subs	r7, r7, #1
 752:	1c5b      	adds	r3, r3, #1
 754:	2f00      	cmp	r7, #0
 756:	d1f6      	bne.n	746 <_ZN4core3fmt9Formatter12pad_integral17hfed4c478dcefa03dE+0x4a>
 758:	e000      	b.n	75c <_ZN4core3fmt9Formatter12pad_integral17hfed4c478dcefa03dE+0x60>
 75a:	2100      	movs	r1, #0
 75c:	9a06      	ldr	r2, [sp, #24]
 75e:	18aa      	adds	r2, r5, r2
 760:	1a55      	subs	r5, r2, r1
 762:	9f03      	ldr	r7, [sp, #12]
 764:	9e0c      	ldr	r6, [sp, #48]	; 0x30
 766:	68a1      	ldr	r1, [r4, #8]
 768:	2901      	cmp	r1, #1
 76a:	d114      	bne.n	796 <_ZN4core3fmt9Formatter12pad_integral17hfed4c478dcefa03dE+0x9a>
 76c:	9602      	str	r6, [sp, #8]
 76e:	68e6      	ldr	r6, [r4, #12]
 770:	42ae      	cmp	r6, r5
 772:	d91c      	bls.n	7ae <_ZN4core3fmt9Formatter12pad_integral17hfed4c478dcefa03dE+0xb2>
 774:	0700      	lsls	r0, r0, #28
 776:	d429      	bmi.n	7cc <_ZN4core3fmt9Formatter12pad_integral17hfed4c478dcefa03dE+0xd0>
 778:	2030      	movs	r0, #48	; 0x30
 77a:	5c21      	ldrb	r1, [r4, r0]
 77c:	2903      	cmp	r1, #3
 77e:	d100      	bne.n	782 <_ZN4core3fmt9Formatter12pad_integral17hfed4c478dcefa03dE+0x86>
 780:	2101      	movs	r1, #1
 782:	1b76      	subs	r6, r6, r5
 784:	2000      	movs	r0, #0
 786:	078a      	lsls	r2, r1, #30
 788:	9703      	str	r7, [sp, #12]
 78a:	d03b      	beq.n	804 <_ZN4core3fmt9Formatter12pad_integral17hfed4c478dcefa03dE+0x108>
 78c:	2902      	cmp	r1, #2
 78e:	d03c      	beq.n	80a <_ZN4core3fmt9Formatter12pad_integral17hfed4c478dcefa03dE+0x10e>
 790:	2100      	movs	r1, #0
 792:	9101      	str	r1, [sp, #4]
 794:	e03e      	b.n	814 <_ZN4core3fmt9Formatter12pad_integral17hfed4c478dcefa03dE+0x118>
 796:	4620      	mov	r0, r4
 798:	ab04      	add	r3, sp, #16
 79a:	cb0e      	ldmia	r3, {r1, r2, r3}
 79c:	f000 f897 	bl	8ce <_ZN4core3fmt9Formatter12pad_integral12write_prefix17h02b1b799aa412d57E>
 7a0:	2800      	cmp	r0, #0
 7a2:	d143      	bne.n	82c <_ZN4core3fmt9Formatter12pad_integral17hfed4c478dcefa03dE+0x130>
 7a4:	69a0      	ldr	r0, [r4, #24]
 7a6:	69e1      	ldr	r1, [r4, #28]
 7a8:	68cb      	ldr	r3, [r1, #12]
 7aa:	4631      	mov	r1, r6
 7ac:	e00a      	b.n	7c4 <_ZN4core3fmt9Formatter12pad_integral17hfed4c478dcefa03dE+0xc8>
 7ae:	4620      	mov	r0, r4
 7b0:	ab04      	add	r3, sp, #16
 7b2:	cb0e      	ldmia	r3, {r1, r2, r3}
 7b4:	f000 f88b 	bl	8ce <_ZN4core3fmt9Formatter12pad_integral12write_prefix17h02b1b799aa412d57E>
 7b8:	2800      	cmp	r0, #0
 7ba:	d137      	bne.n	82c <_ZN4core3fmt9Formatter12pad_integral17hfed4c478dcefa03dE+0x130>
 7bc:	69a0      	ldr	r0, [r4, #24]
 7be:	69e1      	ldr	r1, [r4, #28]
 7c0:	68cb      	ldr	r3, [r1, #12]
 7c2:	9902      	ldr	r1, [sp, #8]
 7c4:	463a      	mov	r2, r7
 7c6:	4798      	blx	r3
 7c8:	4605      	mov	r5, r0
 7ca:	e07b      	b.n	8c4 <_ZN4core3fmt9Formatter12pad_integral17hfed4c478dcefa03dE+0x1c8>
 7cc:	2030      	movs	r0, #48	; 0x30
 7ce:	2101      	movs	r1, #1
 7d0:	9101      	str	r1, [sp, #4]
 7d2:	5421      	strb	r1, [r4, r0]
 7d4:	6060      	str	r0, [r4, #4]
 7d6:	4620      	mov	r0, r4
 7d8:	ab04      	add	r3, sp, #16
 7da:	cb0e      	ldmia	r3, {r1, r2, r3}
 7dc:	f000 f877 	bl	8ce <_ZN4core3fmt9Formatter12pad_integral12write_prefix17h02b1b799aa412d57E>
 7e0:	2800      	cmp	r0, #0
 7e2:	d16e      	bne.n	8c2 <_ZN4core3fmt9Formatter12pad_integral17hfed4c478dcefa03dE+0x1c6>
 7e4:	4620      	mov	r0, r4
 7e6:	3030      	adds	r0, #48	; 0x30
 7e8:	7801      	ldrb	r1, [r0, #0]
 7ea:	2903      	cmp	r1, #3
 7ec:	d100      	bne.n	7f0 <_ZN4core3fmt9Formatter12pad_integral17hfed4c478dcefa03dE+0xf4>
 7ee:	2101      	movs	r1, #1
 7f0:	1b76      	subs	r6, r6, r5
 7f2:	2000      	movs	r0, #0
 7f4:	078a      	lsls	r2, r1, #30
 7f6:	9703      	str	r7, [sp, #12]
 7f8:	d039      	beq.n	86e <_ZN4core3fmt9Formatter12pad_integral17hfed4c478dcefa03dE+0x172>
 7fa:	2902      	cmp	r1, #2
 7fc:	d03a      	beq.n	874 <_ZN4core3fmt9Formatter12pad_integral17hfed4c478dcefa03dE+0x178>
 7fe:	2100      	movs	r1, #0
 800:	9106      	str	r1, [sp, #24]
 802:	e03c      	b.n	87e <_ZN4core3fmt9Formatter12pad_integral17hfed4c478dcefa03dE+0x182>
 804:	9601      	str	r6, [sp, #4]
 806:	4606      	mov	r6, r0
 808:	e004      	b.n	814 <_ZN4core3fmt9Formatter12pad_integral17hfed4c478dcefa03dE+0x118>
 80a:	0871      	lsrs	r1, r6, #1
 80c:	1c72      	adds	r2, r6, #1
 80e:	0852      	lsrs	r2, r2, #1
 810:	9201      	str	r2, [sp, #4]
 812:	460e      	mov	r6, r1
 814:	43c7      	mvns	r7, r0
 816:	463d      	mov	r5, r7
 818:	1c6d      	adds	r5, r5, #1
 81a:	42b5      	cmp	r5, r6
 81c:	d208      	bcs.n	830 <_ZN4core3fmt9Formatter12pad_integral17hfed4c478dcefa03dE+0x134>
 81e:	6861      	ldr	r1, [r4, #4]
 820:	69a0      	ldr	r0, [r4, #24]
 822:	69e2      	ldr	r2, [r4, #28]
 824:	6912      	ldr	r2, [r2, #16]
 826:	4790      	blx	r2
 828:	2800      	cmp	r0, #0
 82a:	d0f5      	beq.n	818 <_ZN4core3fmt9Formatter12pad_integral17hfed4c478dcefa03dE+0x11c>
 82c:	2501      	movs	r5, #1
 82e:	e049      	b.n	8c4 <_ZN4core3fmt9Formatter12pad_integral17hfed4c478dcefa03dE+0x1c8>
 830:	6866      	ldr	r6, [r4, #4]
 832:	4620      	mov	r0, r4
 834:	ab04      	add	r3, sp, #16
 836:	cb0e      	ldmia	r3, {r1, r2, r3}
 838:	f000 f849 	bl	8ce <_ZN4core3fmt9Formatter12pad_integral12write_prefix17h02b1b799aa412d57E>
 83c:	2501      	movs	r5, #1
 83e:	2800      	cmp	r0, #0
 840:	d140      	bne.n	8c4 <_ZN4core3fmt9Formatter12pad_integral17hfed4c478dcefa03dE+0x1c8>
 842:	69a0      	ldr	r0, [r4, #24]
 844:	69e1      	ldr	r1, [r4, #28]
 846:	68cb      	ldr	r3, [r1, #12]
 848:	9902      	ldr	r1, [sp, #8]
 84a:	9a03      	ldr	r2, [sp, #12]
 84c:	4798      	blx	r3
 84e:	2800      	cmp	r0, #0
 850:	d138      	bne.n	8c4 <_ZN4core3fmt9Formatter12pad_integral17hfed4c478dcefa03dE+0x1c8>
 852:	9606      	str	r6, [sp, #24]
 854:	69a6      	ldr	r6, [r4, #24]
 856:	69e4      	ldr	r4, [r4, #28]
 858:	1c7f      	adds	r7, r7, #1
 85a:	9801      	ldr	r0, [sp, #4]
 85c:	4287      	cmp	r7, r0
 85e:	d234      	bcs.n	8ca <_ZN4core3fmt9Formatter12pad_integral17hfed4c478dcefa03dE+0x1ce>
 860:	6922      	ldr	r2, [r4, #16]
 862:	4630      	mov	r0, r6
 864:	9906      	ldr	r1, [sp, #24]
 866:	4790      	blx	r2
 868:	2800      	cmp	r0, #0
 86a:	d0f5      	beq.n	858 <_ZN4core3fmt9Formatter12pad_integral17hfed4c478dcefa03dE+0x15c>
 86c:	e02a      	b.n	8c4 <_ZN4core3fmt9Formatter12pad_integral17hfed4c478dcefa03dE+0x1c8>
 86e:	9606      	str	r6, [sp, #24]
 870:	4606      	mov	r6, r0
 872:	e004      	b.n	87e <_ZN4core3fmt9Formatter12pad_integral17hfed4c478dcefa03dE+0x182>
 874:	0871      	lsrs	r1, r6, #1
 876:	1c72      	adds	r2, r6, #1
 878:	0852      	lsrs	r2, r2, #1
 87a:	9206      	str	r2, [sp, #24]
 87c:	460e      	mov	r6, r1
 87e:	43c5      	mvns	r5, r0
 880:	462f      	mov	r7, r5
 882:	1c7f      	adds	r7, r7, #1
 884:	42b7      	cmp	r7, r6
 886:	d207      	bcs.n	898 <_ZN4core3fmt9Formatter12pad_integral17hfed4c478dcefa03dE+0x19c>
 888:	6861      	ldr	r1, [r4, #4]
 88a:	69a0      	ldr	r0, [r4, #24]
 88c:	69e2      	ldr	r2, [r4, #28]
 88e:	6912      	ldr	r2, [r2, #16]
 890:	4790      	blx	r2
 892:	2800      	cmp	r0, #0
 894:	d0f5      	beq.n	882 <_ZN4core3fmt9Formatter12pad_integral17hfed4c478dcefa03dE+0x186>
 896:	e014      	b.n	8c2 <_ZN4core3fmt9Formatter12pad_integral17hfed4c478dcefa03dE+0x1c6>
 898:	6866      	ldr	r6, [r4, #4]
 89a:	69a0      	ldr	r0, [r4, #24]
 89c:	69e1      	ldr	r1, [r4, #28]
 89e:	68cb      	ldr	r3, [r1, #12]
 8a0:	9902      	ldr	r1, [sp, #8]
 8a2:	9a03      	ldr	r2, [sp, #12]
 8a4:	4798      	blx	r3
 8a6:	2800      	cmp	r0, #0
 8a8:	d10b      	bne.n	8c2 <_ZN4core3fmt9Formatter12pad_integral17hfed4c478dcefa03dE+0x1c6>
 8aa:	69a7      	ldr	r7, [r4, #24]
 8ac:	69e4      	ldr	r4, [r4, #28]
 8ae:	1c6d      	adds	r5, r5, #1
 8b0:	9806      	ldr	r0, [sp, #24]
 8b2:	4285      	cmp	r5, r0
 8b4:	d209      	bcs.n	8ca <_ZN4core3fmt9Formatter12pad_integral17hfed4c478dcefa03dE+0x1ce>
 8b6:	6922      	ldr	r2, [r4, #16]
 8b8:	4638      	mov	r0, r7
 8ba:	4631      	mov	r1, r6
 8bc:	4790      	blx	r2
 8be:	2800      	cmp	r0, #0
 8c0:	d0f5      	beq.n	8ae <_ZN4core3fmt9Formatter12pad_integral17hfed4c478dcefa03dE+0x1b2>
 8c2:	9d01      	ldr	r5, [sp, #4]
 8c4:	4628      	mov	r0, r5
 8c6:	b007      	add	sp, #28
 8c8:	bdf0      	pop	{r4, r5, r6, r7, pc}
 8ca:	2500      	movs	r5, #0
 8cc:	e7fa      	b.n	8c4 <_ZN4core3fmt9Formatter12pad_integral17hfed4c478dcefa03dE+0x1c8>

000008ce <_ZN4core3fmt9Formatter12pad_integral12write_prefix17h02b1b799aa412d57E>:
 8ce:	b570      	push	{r4, r5, r6, lr}
 8d0:	461c      	mov	r4, r3
 8d2:	4615      	mov	r5, r2
 8d4:	4606      	mov	r6, r0
 8d6:	2011      	movs	r0, #17
 8d8:	0400      	lsls	r0, r0, #16
 8da:	4281      	cmp	r1, r0
 8dc:	d007      	beq.n	8ee <_ZN4core3fmt9Formatter12pad_integral12write_prefix17h02b1b799aa412d57E+0x20>
 8de:	69b0      	ldr	r0, [r6, #24]
 8e0:	69f2      	ldr	r2, [r6, #28]
 8e2:	6912      	ldr	r2, [r2, #16]
 8e4:	4790      	blx	r2
 8e6:	2800      	cmp	r0, #0
 8e8:	d001      	beq.n	8ee <_ZN4core3fmt9Formatter12pad_integral12write_prefix17h02b1b799aa412d57E+0x20>
 8ea:	2001      	movs	r0, #1
 8ec:	bd70      	pop	{r4, r5, r6, pc}
 8ee:	2d00      	cmp	r5, #0
 8f0:	d006      	beq.n	900 <_ZN4core3fmt9Formatter12pad_integral12write_prefix17h02b1b799aa412d57E+0x32>
 8f2:	69b0      	ldr	r0, [r6, #24]
 8f4:	69f1      	ldr	r1, [r6, #28]
 8f6:	68cb      	ldr	r3, [r1, #12]
 8f8:	4629      	mov	r1, r5
 8fa:	4622      	mov	r2, r4
 8fc:	4798      	blx	r3
 8fe:	bd70      	pop	{r4, r5, r6, pc}
 900:	2000      	movs	r0, #0
 902:	bd70      	pop	{r4, r5, r6, pc}

00000904 <_ZN4core3fmt3num3imp7fmt_u3217hd5f71347e2daefbcE>:
 904:	b5f0      	push	{r4, r5, r6, r7, lr}
 906:	b091      	sub	sp, #68	; 0x44
 908:	9203      	str	r2, [sp, #12]
 90a:	9102      	str	r1, [sp, #8]
 90c:	4607      	mov	r7, r0
 90e:	4d36      	ldr	r5, [pc, #216]	; (9e8 <_ZN4core3fmt3num3imp7fmt_u3217hd5f71347e2daefbcE+0xe4>)
 910:	42a8      	cmp	r0, r5
 912:	d950      	bls.n	9b6 <_ZN4core3fmt3num3imp7fmt_u3217hd5f71347e2daefbcE+0xb2>
 914:	2001      	movs	r0, #1
 916:	43c0      	mvns	r0, r0
 918:	2427      	movs	r4, #39	; 0x27
 91a:	0040      	lsls	r0, r0, #1
 91c:	9004      	str	r0, [sp, #16]
 91e:	463e      	mov	r6, r7
 920:	9606      	str	r6, [sp, #24]
 922:	4630      	mov	r0, r6
 924:	4931      	ldr	r1, [pc, #196]	; (9ec <_ZN4core3fmt3num3imp7fmt_u3217hd5f71347e2daefbcE+0xe8>)
 926:	f000 f887 	bl	a38 <__aeabi_uidiv>
 92a:	9005      	str	r0, [sp, #20]
 92c:	1c69      	adds	r1, r5, #1
 92e:	4341      	muls	r1, r0
 930:	1a75      	subs	r5, r6, r1
 932:	2764      	movs	r7, #100	; 0x64
 934:	4628      	mov	r0, r5
 936:	4639      	mov	r1, r7
 938:	f000 f87e 	bl	a38 <__aeabi_uidiv>
 93c:	a907      	add	r1, sp, #28
 93e:	1909      	adds	r1, r1, r4
 940:	0042      	lsls	r2, r0, #1
 942:	4b2b      	ldr	r3, [pc, #172]	; (9f0 <_ZN4core3fmt3num3imp7fmt_u3217hd5f71347e2daefbcE+0xec>)
 944:	5c9b      	ldrb	r3, [r3, r2]
 946:	9e04      	ldr	r6, [sp, #16]
 948:	558b      	strb	r3, [r1, r6]
 94a:	1989      	adds	r1, r1, r6
 94c:	4b28      	ldr	r3, [pc, #160]	; (9f0 <_ZN4core3fmt3num3imp7fmt_u3217hd5f71347e2daefbcE+0xec>)
 94e:	189a      	adds	r2, r3, r2
 950:	7852      	ldrb	r2, [r2, #1]
 952:	704a      	strb	r2, [r1, #1]
 954:	4347      	muls	r7, r0
 956:	1be8      	subs	r0, r5, r7
 958:	4d23      	ldr	r5, [pc, #140]	; (9e8 <_ZN4core3fmt3num3imp7fmt_u3217hd5f71347e2daefbcE+0xe4>)
 95a:	9f05      	ldr	r7, [sp, #20]
 95c:	0040      	lsls	r0, r0, #1
 95e:	5c1a      	ldrb	r2, [r3, r0]
 960:	708a      	strb	r2, [r1, #2]
 962:	1818      	adds	r0, r3, r0
 964:	7840      	ldrb	r0, [r0, #1]
 966:	70c8      	strb	r0, [r1, #3]
 968:	1f24      	subs	r4, r4, #4
 96a:	4822      	ldr	r0, [pc, #136]	; (9f4 <_ZN4core3fmt3num3imp7fmt_u3217hd5f71347e2daefbcE+0xf0>)
 96c:	9906      	ldr	r1, [sp, #24]
 96e:	4281      	cmp	r1, r0
 970:	463e      	mov	r6, r7
 972:	d8d5      	bhi.n	920 <_ZN4core3fmt3num3imp7fmt_u3217hd5f71347e2daefbcE+0x1c>
 974:	2f63      	cmp	r7, #99	; 0x63
 976:	dd21      	ble.n	9bc <_ZN4core3fmt3num3imp7fmt_u3217hd5f71347e2daefbcE+0xb8>
 978:	b2b8      	uxth	r0, r7
 97a:	2564      	movs	r5, #100	; 0x64
 97c:	4629      	mov	r1, r5
 97e:	f000 f85b 	bl	a38 <__aeabi_uidiv>
 982:	4345      	muls	r5, r0
 984:	1b79      	subs	r1, r7, r5
 986:	b289      	uxth	r1, r1
 988:	0049      	lsls	r1, r1, #1
 98a:	4a19      	ldr	r2, [pc, #100]	; (9f0 <_ZN4core3fmt3num3imp7fmt_u3217hd5f71347e2daefbcE+0xec>)
 98c:	5c53      	ldrb	r3, [r2, r1]
 98e:	1ea4      	subs	r4, r4, #2
 990:	ad07      	add	r5, sp, #28
 992:	552b      	strb	r3, [r5, r4]
 994:	192b      	adds	r3, r5, r4
 996:	1851      	adds	r1, r2, r1
 998:	7849      	ldrb	r1, [r1, #1]
 99a:	7059      	strb	r1, [r3, #1]
 99c:	2809      	cmp	r0, #9
 99e:	dd10      	ble.n	9c2 <_ZN4core3fmt3num3imp7fmt_u3217hd5f71347e2daefbcE+0xbe>
 9a0:	0040      	lsls	r0, r0, #1
 9a2:	4a13      	ldr	r2, [pc, #76]	; (9f0 <_ZN4core3fmt3num3imp7fmt_u3217hd5f71347e2daefbcE+0xec>)
 9a4:	5c13      	ldrb	r3, [r2, r0]
 9a6:	1ea1      	subs	r1, r4, #2
 9a8:	ac07      	add	r4, sp, #28
 9aa:	5463      	strb	r3, [r4, r1]
 9ac:	1863      	adds	r3, r4, r1
 9ae:	1810      	adds	r0, r2, r0
 9b0:	7840      	ldrb	r0, [r0, #1]
 9b2:	7058      	strb	r0, [r3, #1]
 9b4:	e009      	b.n	9ca <_ZN4core3fmt3num3imp7fmt_u3217hd5f71347e2daefbcE+0xc6>
 9b6:	2427      	movs	r4, #39	; 0x27
 9b8:	2f63      	cmp	r7, #99	; 0x63
 9ba:	dcdd      	bgt.n	978 <_ZN4core3fmt3num3imp7fmt_u3217hd5f71347e2daefbcE+0x74>
 9bc:	4638      	mov	r0, r7
 9be:	2809      	cmp	r0, #9
 9c0:	dcee      	bgt.n	9a0 <_ZN4core3fmt3num3imp7fmt_u3217hd5f71347e2daefbcE+0x9c>
 9c2:	1e61      	subs	r1, r4, #1
 9c4:	3030      	adds	r0, #48	; 0x30
 9c6:	aa07      	add	r2, sp, #28
 9c8:	5450      	strb	r0, [r2, r1]
 9ca:	2027      	movs	r0, #39	; 0x27
 9cc:	1a40      	subs	r0, r0, r1
 9ce:	466a      	mov	r2, sp
 9d0:	6050      	str	r0, [r2, #4]
 9d2:	a807      	add	r0, sp, #28
 9d4:	1840      	adds	r0, r0, r1
 9d6:	6010      	str	r0, [r2, #0]
 9d8:	4a07      	ldr	r2, [pc, #28]	; (9f8 <_ZN4core3fmt3num3imp7fmt_u3217hd5f71347e2daefbcE+0xf4>)
 9da:	2300      	movs	r3, #0
 9dc:	9803      	ldr	r0, [sp, #12]
 9de:	9902      	ldr	r1, [sp, #8]
 9e0:	f7ff fe8c 	bl	6fc <_ZN4core3fmt9Formatter12pad_integral17hfed4c478dcefa03dE>
 9e4:	b011      	add	sp, #68	; 0x44
 9e6:	bdf0      	pop	{r4, r5, r6, r7, pc}
 9e8:	0000270f 	.word	0x0000270f
 9ec:	00002710 	.word	0x00002710
 9f0:	00000e34 	.word	0x00000e34
 9f4:	05f5e0ff 	.word	0x05f5e0ff
 9f8:	00000dd4 	.word	0x00000dd4

000009fc <_ZN4core3fmt3num3imp52_$LT$impl$u20$core..fmt..Display$u20$for$u20$u32$GT$3fmt17h490cd499cca46fe6E>:
 9fc:	b580      	push	{r7, lr}
 9fe:	460a      	mov	r2, r1
 a00:	6800      	ldr	r0, [r0, #0]
 a02:	2101      	movs	r1, #1
 a04:	f7ff ff7e 	bl	904 <_ZN4core3fmt3num3imp7fmt_u3217hd5f71347e2daefbcE>
 a08:	bd80      	pop	{r7, pc}

00000a0a <__aeabi_memcpy>:
 a0a:	2a00      	cmp	r2, #0
 a0c:	d005      	beq.n	a1a <__aeabi_memcpy+0x10>
 a0e:	780b      	ldrb	r3, [r1, #0]
 a10:	7003      	strb	r3, [r0, #0]
 a12:	1c49      	adds	r1, r1, #1
 a14:	1c40      	adds	r0, r0, #1
 a16:	1e52      	subs	r2, r2, #1
 a18:	d1f9      	bne.n	a0e <__aeabi_memcpy+0x4>
 a1a:	4770      	bx	lr

00000a1c <__aeabi_memcpy4>:
 a1c:	b510      	push	{r4, lr}
 a1e:	2a04      	cmp	r2, #4
 a20:	d307      	bcc.n	a32 <__aeabi_memcpy4+0x16>
 a22:	4613      	mov	r3, r2
 a24:	c910      	ldmia	r1!, {r4}
 a26:	c010      	stmia	r0!, {r4}
 a28:	1f1b      	subs	r3, r3, #4
 a2a:	2b03      	cmp	r3, #3
 a2c:	d8fa      	bhi.n	a24 <__aeabi_memcpy4+0x8>
 a2e:	2303      	movs	r3, #3
 a30:	401a      	ands	r2, r3
 a32:	f7ff ffea 	bl	a0a <__aeabi_memcpy>
 a36:	bd10      	pop	{r4, pc}

00000a38 <__aeabi_uidiv>:
 a38:	b5f0      	push	{r4, r5, r6, r7, lr}
 a3a:	b081      	sub	sp, #4
 a3c:	2900      	cmp	r1, #0
 a3e:	d03a      	beq.n	ab6 <__aeabi_uidiv+0x7e>
 a40:	4604      	mov	r4, r0
 a42:	2000      	movs	r0, #0
 a44:	2c00      	cmp	r4, #0
 a46:	d034      	beq.n	ab2 <__aeabi_uidiv+0x7a>
 a48:	460d      	mov	r5, r1
 a4a:	2720      	movs	r7, #32
 a4c:	2900      	cmp	r1, #0
 a4e:	463e      	mov	r6, r7
 a50:	9000      	str	r0, [sp, #0]
 a52:	d004      	beq.n	a5e <__aeabi_uidiv+0x26>
 a54:	4628      	mov	r0, r5
 a56:	f000 f831 	bl	abc <__clzsi2>
 a5a:	4606      	mov	r6, r0
 a5c:	9800      	ldr	r0, [sp, #0]
 a5e:	2c00      	cmp	r4, #0
 a60:	d004      	beq.n	a6c <__aeabi_uidiv+0x34>
 a62:	4620      	mov	r0, r4
 a64:	f000 f82a 	bl	abc <__clzsi2>
 a68:	4607      	mov	r7, r0
 a6a:	9800      	ldr	r0, [sp, #0]
 a6c:	1bf1      	subs	r1, r6, r7
 a6e:	291f      	cmp	r1, #31
 a70:	d81f      	bhi.n	ab2 <__aeabi_uidiv+0x7a>
 a72:	d102      	bne.n	a7a <__aeabi_uidiv+0x42>
 a74:	4620      	mov	r0, r4
 a76:	b001      	add	sp, #4
 a78:	bdf0      	pop	{r4, r5, r6, r7, pc}
 a7a:	1c70      	adds	r0, r6, #1
 a7c:	1bc0      	subs	r0, r0, r7
 a7e:	1c4b      	adds	r3, r1, #1
 a80:	261f      	movs	r6, #31
 a82:	4033      	ands	r3, r6
 a84:	4622      	mov	r2, r4
 a86:	40da      	lsrs	r2, r3
 a88:	1a71      	subs	r1, r6, r1
 a8a:	4031      	ands	r1, r6
 a8c:	408c      	lsls	r4, r1
 a8e:	2100      	movs	r1, #0
 a90:	0fe3      	lsrs	r3, r4, #31
 a92:	0052      	lsls	r2, r2, #1
 a94:	18d2      	adds	r2, r2, r3
 a96:	43d3      	mvns	r3, r2
 a98:	195b      	adds	r3, r3, r5
 a9a:	17db      	asrs	r3, r3, #31
 a9c:	461e      	mov	r6, r3
 a9e:	402e      	ands	r6, r5
 aa0:	1b92      	subs	r2, r2, r6
 aa2:	0064      	lsls	r4, r4, #1
 aa4:	430c      	orrs	r4, r1
 aa6:	2101      	movs	r1, #1
 aa8:	4019      	ands	r1, r3
 aaa:	1e40      	subs	r0, r0, #1
 aac:	d1f0      	bne.n	a90 <__aeabi_uidiv+0x58>
 aae:	0060      	lsls	r0, r4, #1
 ab0:	1808      	adds	r0, r1, r0
 ab2:	b001      	add	sp, #4
 ab4:	bdf0      	pop	{r4, r5, r6, r7, pc}
 ab6:	defe      	udf	#254	; 0xfe
 ab8:	defe      	udf	#254	; 0xfe
 aba:	d4d4      	bmi.n	a66 <__aeabi_uidiv+0x2e>

00000abc <__clzsi2>:
 abc:	0c03      	lsrs	r3, r0, #16
 abe:	2110      	movs	r1, #16
 ac0:	2b00      	cmp	r3, #0
 ac2:	d001      	beq.n	ac8 <__clzsi2+0xc>
 ac4:	0018      	movs	r0, r3
 ac6:	2100      	movs	r1, #0
 ac8:	23ff      	movs	r3, #255	; 0xff
 aca:	021b      	lsls	r3, r3, #8
 acc:	4218      	tst	r0, r3
 ace:	d011      	beq.n	af4 <__clzsi2+0x38>
 ad0:	23f0      	movs	r3, #240	; 0xf0
 ad2:	0a00      	lsrs	r0, r0, #8
 ad4:	4203      	tst	r3, r0
 ad6:	d011      	beq.n	afc <__clzsi2+0x40>
 ad8:	230c      	movs	r3, #12
 ada:	0900      	lsrs	r0, r0, #4
 adc:	4203      	tst	r3, r0
 ade:	d011      	beq.n	b04 <__clzsi2+0x48>
 ae0:	0880      	lsrs	r0, r0, #2
 ae2:	2201      	movs	r2, #1
 ae4:	0843      	lsrs	r3, r0, #1
 ae6:	439a      	bics	r2, r3
 ae8:	2302      	movs	r3, #2
 aea:	4252      	negs	r2, r2
 aec:	1a18      	subs	r0, r3, r0
 aee:	4010      	ands	r0, r2
 af0:	1840      	adds	r0, r0, r1
 af2:	4770      	bx	lr
 af4:	23f0      	movs	r3, #240	; 0xf0
 af6:	3108      	adds	r1, #8
 af8:	4203      	tst	r3, r0
 afa:	d1ed      	bne.n	ad8 <__clzsi2+0x1c>
 afc:	230c      	movs	r3, #12
 afe:	3104      	adds	r1, #4
 b00:	4203      	tst	r3, r0
 b02:	d1ed      	bne.n	ae0 <__clzsi2+0x24>
 b04:	3102      	adds	r1, #2
 b06:	e7ec      	b.n	ae2 <__clzsi2+0x26>

00000b08 <Reset>:
 b08:	f000 f824 	bl	b54 <DefaultPreInit>
 b0c:	e7ff      	b.n	b0e <Reset+0x6>
 b0e:	4807      	ldr	r0, [pc, #28]	; (b2c <Reset+0x24>)
 b10:	4907      	ldr	r1, [pc, #28]	; (b30 <Reset+0x28>)
 b12:	f000 f820 	bl	b56 <_ZN2r08zero_bss17hf6ea4f8c8365dea6E>
 b16:	e7ff      	b.n	b18 <Reset+0x10>
 b18:	4806      	ldr	r0, [pc, #24]	; (b34 <Reset+0x2c>)
 b1a:	4907      	ldr	r1, [pc, #28]	; (b38 <Reset+0x30>)
 b1c:	4a07      	ldr	r2, [pc, #28]	; (b3c <Reset+0x34>)
 b1e:	f000 f83e 	bl	b9e <_ZN2r09init_data17h45638ed94a1e808bE>
 b22:	e7ff      	b.n	b24 <Reset+0x1c>
 b24:	f7ff fc9a 	bl	45c <main>
 b28:	defe      	udf	#254	; 0xfe
 b2a:	46c0      	nop			; (mov r8, r8)
 b2c:	20000000 	.word	0x20000000
 b30:	20000400 	.word	0x20000400
 b34:	20000000 	.word	0x20000000
 b38:	20000000 	.word	0x20000000
 b3c:	00000f60 	.word	0x00000f60

00000b40 <DefaultHandler_>:
 b40:	Address 0x0000000000000b40 is out of bounds.


00000b41 <DefaultHandler>:
 b41:	ffb0 01e7 			; <UNDEFINED> instruction: 0xffb001e7
 b45:	04a8      	lsls	r0, r5, #18
 b47:	0121      	lsls	r1, r4, #4
 b49:	0170      	lsls	r0, r6, #5
 b4b:	0098      	lsls	r0, r3, #2
 b4d:	d4f0      	bmi.n	b31 <Reset+0x29>
 b4f:	fff8 f7e7 	vqneg.s32	<illegal reg q15.5>, <illegal reg q11.5>
 b53:	Address 0x0000000000000b53 is out of bounds.


00000b54 <DefaultPreInit>:
 b54:	Address 0x0000000000000b54 is out of bounds.


00000b55 <__pre_init>:
 b55:	Address 0x0000000000000b55 is out of bounds.


00000b56 <_ZN2r08zero_bss17hf6ea4f8c8365dea6E>:
 b56:	b580      	push	{r7, lr}
 b58:	b088      	sub	sp, #32
 b5a:	460a      	mov	r2, r1
 b5c:	4603      	mov	r3, r0
 b5e:	9006      	str	r0, [sp, #24]
 b60:	9107      	str	r1, [sp, #28]
 b62:	9205      	str	r2, [sp, #20]
 b64:	9304      	str	r3, [sp, #16]
 b66:	e7ff      	b.n	b68 <_ZN2r08zero_bss17hf6ea4f8c8365dea6E+0x12>
 b68:	9806      	ldr	r0, [sp, #24]
 b6a:	9907      	ldr	r1, [sp, #28]
 b6c:	4288      	cmp	r0, r1
 b6e:	d302      	bcc.n	b76 <_ZN2r08zero_bss17hf6ea4f8c8365dea6E+0x20>
 b70:	e7ff      	b.n	b72 <_ZN2r08zero_bss17hf6ea4f8c8365dea6E+0x1c>
 b72:	b008      	add	sp, #32
 b74:	bd80      	pop	{r7, pc}
 b76:	9806      	ldr	r0, [sp, #24]
 b78:	9003      	str	r0, [sp, #12]
 b7a:	f000 f841 	bl	c00 <_ZN4core3mem6zeroed17h879ee48b56d54effE>
 b7e:	9002      	str	r0, [sp, #8]
 b80:	e7ff      	b.n	b82 <_ZN2r08zero_bss17hf6ea4f8c8365dea6E+0x2c>
 b82:	9803      	ldr	r0, [sp, #12]
 b84:	9902      	ldr	r1, [sp, #8]
 b86:	f000 f845 	bl	c14 <_ZN4core3ptr14write_volatile17h83cc94c927e71bb8E>
 b8a:	e7ff      	b.n	b8c <_ZN2r08zero_bss17hf6ea4f8c8365dea6E+0x36>
 b8c:	9806      	ldr	r0, [sp, #24]
 b8e:	2101      	movs	r1, #1
 b90:	f000 f84d 	bl	c2e <_ZN4core3ptr31_$LT$impl$u20$$BP$mut$u20$T$GT$6offset17h63702e516b122d0dE>
 b94:	9001      	str	r0, [sp, #4]
 b96:	e7ff      	b.n	b98 <_ZN2r08zero_bss17hf6ea4f8c8365dea6E+0x42>
 b98:	9801      	ldr	r0, [sp, #4]
 b9a:	9006      	str	r0, [sp, #24]
 b9c:	e7e4      	b.n	b68 <_ZN2r08zero_bss17hf6ea4f8c8365dea6E+0x12>

00000b9e <_ZN2r09init_data17h45638ed94a1e808bE>:
 b9e:	b5b0      	push	{r4, r5, r7, lr}
 ba0:	b08a      	sub	sp, #40	; 0x28
 ba2:	4613      	mov	r3, r2
 ba4:	460c      	mov	r4, r1
 ba6:	4605      	mov	r5, r0
 ba8:	9007      	str	r0, [sp, #28]
 baa:	9108      	str	r1, [sp, #32]
 bac:	9209      	str	r2, [sp, #36]	; 0x24
 bae:	9306      	str	r3, [sp, #24]
 bb0:	9405      	str	r4, [sp, #20]
 bb2:	9504      	str	r5, [sp, #16]
 bb4:	e7ff      	b.n	bb6 <_ZN2r09init_data17h45638ed94a1e808bE+0x18>
 bb6:	9807      	ldr	r0, [sp, #28]
 bb8:	9908      	ldr	r1, [sp, #32]
 bba:	4288      	cmp	r0, r1
 bbc:	d302      	bcc.n	bc4 <_ZN2r09init_data17h45638ed94a1e808bE+0x26>
 bbe:	e7ff      	b.n	bc0 <_ZN2r09init_data17h45638ed94a1e808bE+0x22>
 bc0:	b00a      	add	sp, #40	; 0x28
 bc2:	bdb0      	pop	{r4, r5, r7, pc}
 bc4:	9807      	ldr	r0, [sp, #28]
 bc6:	9909      	ldr	r1, [sp, #36]	; 0x24
 bc8:	9003      	str	r0, [sp, #12]
 bca:	4608      	mov	r0, r1
 bcc:	f000 f853 	bl	c76 <_ZN4core3ptr4read17h4c74faae944275dfE>
 bd0:	9002      	str	r0, [sp, #8]
 bd2:	e7ff      	b.n	bd4 <_ZN2r09init_data17h45638ed94a1e808bE+0x36>
 bd4:	9803      	ldr	r0, [sp, #12]
 bd6:	9902      	ldr	r1, [sp, #8]
 bd8:	f000 f86e 	bl	cb8 <_ZN4core3ptr5write17h56b54f701e7b64feE>
 bdc:	e7ff      	b.n	bde <_ZN2r09init_data17h45638ed94a1e808bE+0x40>
 bde:	9807      	ldr	r0, [sp, #28]
 be0:	2101      	movs	r1, #1
 be2:	f000 f824 	bl	c2e <_ZN4core3ptr31_$LT$impl$u20$$BP$mut$u20$T$GT$6offset17h63702e516b122d0dE>
 be6:	9001      	str	r0, [sp, #4]
 be8:	e7ff      	b.n	bea <_ZN2r09init_data17h45638ed94a1e808bE+0x4c>
 bea:	9801      	ldr	r0, [sp, #4]
 bec:	9007      	str	r0, [sp, #28]
 bee:	9809      	ldr	r0, [sp, #36]	; 0x24
 bf0:	2101      	movs	r1, #1
 bf2:	f000 f82e 	bl	c52 <_ZN4core3ptr33_$LT$impl$u20$$BP$const$u20$T$GT$6offset17hda6e811b2d8ae2b7E>
 bf6:	9000      	str	r0, [sp, #0]
 bf8:	e7ff      	b.n	bfa <_ZN2r09init_data17h45638ed94a1e808bE+0x5c>
 bfa:	9800      	ldr	r0, [sp, #0]
 bfc:	9009      	str	r0, [sp, #36]	; 0x24
 bfe:	e7da      	b.n	bb6 <_ZN2r09init_data17h45638ed94a1e808bE+0x18>

00000c00 <_ZN4core3mem6zeroed17h879ee48b56d54effE>:
 c00:	b082      	sub	sp, #8
 c02:	e7ff      	b.n	c04 <_ZN4core3mem6zeroed17h879ee48b56d54effE+0x4>
 c04:	2000      	movs	r0, #0
 c06:	9001      	str	r0, [sp, #4]
 c08:	9801      	ldr	r0, [sp, #4]
 c0a:	9000      	str	r0, [sp, #0]
 c0c:	e7ff      	b.n	c0e <_ZN4core3mem6zeroed17h879ee48b56d54effE+0xe>
 c0e:	9800      	ldr	r0, [sp, #0]
 c10:	b002      	add	sp, #8
 c12:	4770      	bx	lr

00000c14 <_ZN4core3ptr14write_volatile17h83cc94c927e71bb8E>:
 c14:	b084      	sub	sp, #16
 c16:	460a      	mov	r2, r1
 c18:	4603      	mov	r3, r0
 c1a:	9002      	str	r0, [sp, #8]
 c1c:	9103      	str	r1, [sp, #12]
 c1e:	9802      	ldr	r0, [sp, #8]
 c20:	9903      	ldr	r1, [sp, #12]
 c22:	6001      	str	r1, [r0, #0]
 c24:	9201      	str	r2, [sp, #4]
 c26:	9300      	str	r3, [sp, #0]
 c28:	e7ff      	b.n	c2a <_ZN4core3ptr14write_volatile17h83cc94c927e71bb8E+0x16>
 c2a:	b004      	add	sp, #16
 c2c:	4770      	bx	lr

00000c2e <_ZN4core3ptr31_$LT$impl$u20$$BP$mut$u20$T$GT$6offset17h63702e516b122d0dE>:
 c2e:	b086      	sub	sp, #24
 c30:	460a      	mov	r2, r1
 c32:	4603      	mov	r3, r0
 c34:	9003      	str	r0, [sp, #12]
 c36:	9104      	str	r1, [sp, #16]
 c38:	9803      	ldr	r0, [sp, #12]
 c3a:	9904      	ldr	r1, [sp, #16]
 c3c:	0089      	lsls	r1, r1, #2
 c3e:	1840      	adds	r0, r0, r1
 c40:	9005      	str	r0, [sp, #20]
 c42:	9805      	ldr	r0, [sp, #20]
 c44:	9202      	str	r2, [sp, #8]
 c46:	9301      	str	r3, [sp, #4]
 c48:	9000      	str	r0, [sp, #0]
 c4a:	e7ff      	b.n	c4c <_ZN4core3ptr31_$LT$impl$u20$$BP$mut$u20$T$GT$6offset17h63702e516b122d0dE+0x1e>
 c4c:	9800      	ldr	r0, [sp, #0]
 c4e:	b006      	add	sp, #24
 c50:	4770      	bx	lr

00000c52 <_ZN4core3ptr33_$LT$impl$u20$$BP$const$u20$T$GT$6offset17hda6e811b2d8ae2b7E>:
 c52:	b086      	sub	sp, #24
 c54:	460a      	mov	r2, r1
 c56:	4603      	mov	r3, r0
 c58:	9003      	str	r0, [sp, #12]
 c5a:	9104      	str	r1, [sp, #16]
 c5c:	9803      	ldr	r0, [sp, #12]
 c5e:	9904      	ldr	r1, [sp, #16]
 c60:	0089      	lsls	r1, r1, #2
 c62:	1840      	adds	r0, r0, r1
 c64:	9005      	str	r0, [sp, #20]
 c66:	9805      	ldr	r0, [sp, #20]
 c68:	9202      	str	r2, [sp, #8]
 c6a:	9301      	str	r3, [sp, #4]
 c6c:	9000      	str	r0, [sp, #0]
 c6e:	e7ff      	b.n	c70 <_ZN4core3ptr33_$LT$impl$u20$$BP$const$u20$T$GT$6offset17hda6e811b2d8ae2b7E+0x1e>
 c70:	9800      	ldr	r0, [sp, #0]
 c72:	b006      	add	sp, #24
 c74:	4770      	bx	lr

00000c76 <_ZN4core3ptr4read17h4c74faae944275dfE>:
 c76:	b580      	push	{r7, lr}
 c78:	b08c      	sub	sp, #48	; 0x30
 c7a:	4601      	mov	r1, r0
 c7c:	9005      	str	r0, [sp, #20]
 c7e:	9807      	ldr	r0, [sp, #28]
 c80:	9006      	str	r0, [sp, #24]
 c82:	9104      	str	r1, [sp, #16]
 c84:	e7ff      	b.n	c86 <_ZN4core3ptr4read17h4c74faae944275dfE+0x10>
 c86:	9805      	ldr	r0, [sp, #20]
 c88:	a906      	add	r1, sp, #24
 c8a:	910a      	str	r1, [sp, #40]	; 0x28
 c8c:	990a      	ldr	r1, [sp, #40]	; 0x28
 c8e:	910b      	str	r1, [sp, #44]	; 0x2c
 c90:	990b      	ldr	r1, [sp, #44]	; 0x2c
 c92:	9003      	str	r0, [sp, #12]
 c94:	9102      	str	r1, [sp, #8]
 c96:	e7ff      	b.n	c98 <_ZN4core3ptr4read17h4c74faae944275dfE+0x22>
 c98:	2201      	movs	r2, #1
 c9a:	9803      	ldr	r0, [sp, #12]
 c9c:	9902      	ldr	r1, [sp, #8]
 c9e:	f000 f817 	bl	cd0 <_ZN4core10intrinsics19copy_nonoverlapping17h60ab025680584f4aE>
 ca2:	e7ff      	b.n	ca4 <_ZN4core3ptr4read17h4c74faae944275dfE+0x2e>
 ca4:	9806      	ldr	r0, [sp, #24]
 ca6:	9008      	str	r0, [sp, #32]
 ca8:	9808      	ldr	r0, [sp, #32]
 caa:	9009      	str	r0, [sp, #36]	; 0x24
 cac:	9809      	ldr	r0, [sp, #36]	; 0x24
 cae:	9001      	str	r0, [sp, #4]
 cb0:	e7ff      	b.n	cb2 <_ZN4core3ptr4read17h4c74faae944275dfE+0x3c>
 cb2:	9801      	ldr	r0, [sp, #4]
 cb4:	b00c      	add	sp, #48	; 0x30
 cb6:	bd80      	pop	{r7, pc}

00000cb8 <_ZN4core3ptr5write17h56b54f701e7b64feE>:
 cb8:	b084      	sub	sp, #16
 cba:	460a      	mov	r2, r1
 cbc:	4603      	mov	r3, r0
 cbe:	9002      	str	r0, [sp, #8]
 cc0:	9103      	str	r1, [sp, #12]
 cc2:	9802      	ldr	r0, [sp, #8]
 cc4:	9903      	ldr	r1, [sp, #12]
 cc6:	6001      	str	r1, [r0, #0]
 cc8:	9201      	str	r2, [sp, #4]
 cca:	9300      	str	r3, [sp, #0]
 ccc:	b004      	add	sp, #16
 cce:	4770      	bx	lr

00000cd0 <_ZN4core10intrinsics19copy_nonoverlapping17h60ab025680584f4aE>:
 cd0:	b5b0      	push	{r4, r5, r7, lr}
 cd2:	b086      	sub	sp, #24
 cd4:	4613      	mov	r3, r2
 cd6:	460c      	mov	r4, r1
 cd8:	4605      	mov	r5, r0
 cda:	9003      	str	r0, [sp, #12]
 cdc:	9104      	str	r1, [sp, #16]
 cde:	9205      	str	r2, [sp, #20]
 ce0:	9903      	ldr	r1, [sp, #12]
 ce2:	9804      	ldr	r0, [sp, #16]
 ce4:	9a05      	ldr	r2, [sp, #20]
 ce6:	0092      	lsls	r2, r2, #2
 ce8:	9302      	str	r3, [sp, #8]
 cea:	9401      	str	r4, [sp, #4]
 cec:	9500      	str	r5, [sp, #0]
 cee:	f7ff fe95 	bl	a1c <__aeabi_memcpy4>
 cf2:	e7ff      	b.n	cf4 <_ZN4core10intrinsics19copy_nonoverlapping17h60ab025680584f4aE+0x24>
 cf4:	b006      	add	sp, #24
 cf6:	bdb0      	pop	{r4, r5, r7, pc}

00000cf8 <_ZN4core4sync6atomic14compiler_fence17hefff3aadcea10a1aE>:
 cf8:	b084      	sub	sp, #16
 cfa:	4601      	mov	r1, r0
 cfc:	aa02      	add	r2, sp, #8
 cfe:	7010      	strb	r0, [r2, #0]
 d00:	7810      	ldrb	r0, [r2, #0]
 d02:	2804      	cmp	r0, #4
 d04:	9101      	str	r1, [sp, #4]
 d06:	9000      	str	r0, [sp, #0]
 d08:	d807      	bhi.n	d1a <_ZN4core4sync6atomic14compiler_fence17hefff3aadcea10a1aE+0x22>
 d0a:	9800      	ldr	r0, [sp, #0]
 d0c:	4478      	add	r0, pc
 d0e:	7900      	ldrb	r0, [r0, #4]
 d10:	0040      	lsls	r0, r0, #1
 d12:	4487      	add	pc, r0
 d14:	05030407 	.word	0x05030407
 d18:	0006      	.short	0x0006
 d1a:	defe      	udf	#254	; 0xfe
 d1c:	e006      	b.n	d2c <_ZN4core4sync6atomic14compiler_fence17hefff3aadcea10a1aE+0x34>
 d1e:	e005      	b.n	d2c <_ZN4core4sync6atomic14compiler_fence17hefff3aadcea10a1aE+0x34>
 d20:	e004      	b.n	d2c <_ZN4core4sync6atomic14compiler_fence17hefff3aadcea10a1aE+0x34>
 d22:	e003      	b.n	d2c <_ZN4core4sync6atomic14compiler_fence17hefff3aadcea10a1aE+0x34>
 d24:	4802      	ldr	r0, [pc, #8]	; (d30 <_ZN4core4sync6atomic14compiler_fence17hefff3aadcea10a1aE+0x38>)
 d26:	f7ff fc9b 	bl	660 <_ZN4core9panicking5panic17h138a849f37d3ac2dE>
 d2a:	defe      	udf	#254	; 0xfe
 d2c:	b004      	add	sp, #16
 d2e:	4770      	bx	lr
 d30:	00000f48 	.word	0x00000f48

00000d34 <HardFaultTrampoline>:
 d34:	4670      	mov	r0, lr
 d36:	2104      	movs	r1, #4
 d38:	4208      	tst	r0, r1
 d3a:	d102      	bne.n	d42 <HardFaultTrampoline+0xe>
 d3c:	f3ef 8008 	mrs	r0, MSP
 d40:	e002      	b.n	d48 <HardFault_>
 d42:	f3ef 8009 	mrs	r0, PSP
 d46:	e7ff      	b.n	d48 <HardFault_>

00000d48 <HardFault_>:
 d48:	Address 0x0000000000000d48 is out of bounds.


00000d49 <HardFault>:
 d49:	01b0      	lsls	r0, r6, #6
 d4b:	0246      	lsls	r6, r0, #9
 d4d:	0190      	lsls	r0, r2, #6
 d4f:	ff91 03e7 			; <UNDEFINED> instruction: 0xff9103e7
 d53:	04a8      	lsls	r0, r5, #18
 d55:	0121      	lsls	r1, r4, #4
 d57:	0370      	lsls	r0, r6, #13
 d59:	ff98 cdf7 			; <UNDEFINED> instruction: 0xff98cdf7
 d5d:	ffff f7e7 			; <UNDEFINED> instruction: 0xfffff7e7
 d61:	Address 0x0000000000000d61 is out of bounds.

